	.cpu generic+fp+simd
	.file	"hisi-blk-iosched-ufs-mq.c"
	.text
.Ltext0:
	.cfi_sections	.debug_frame
	.align	2
	.type	ufs_mq_tag_update_depth, %function
ufs_mq_tag_update_depth:
.LFB3115:
	.file 1 "/mnt/disk/jenkins/ci/workspace/chipset_patch_970_docker/opensource/component_code/vendor/huawei/extra/build/build_script/kirin_kernel_release/kernel/block/hisi-blk-iosched-ufs-mq.c"
	.loc 1 447 0
	.cfi_startproc
.LVL0:
	.loc 1 449 0
	mov	w0, -22
.LVL1:
	ret
	.cfi_endproc
.LFE3115:
	.size	ufs_mq_tag_update_depth, .-ufs_mq_tag_update_depth
	.align	2
	.type	ufs_mq_async_sched_fifo_init, %function
ufs_mq_async_sched_fifo_init:
.LFB3148:
	.loc 1 1116 0
	.cfi_startproc
.LVL2:
	.loc 1 1117 0
	ldr	x1, [x0,13016]
.LVL3:
	.loc 1 1118 0
	add	x0, x1, 264
.LVL4:
.LBB1628:
.LBB1629:
.LBB1630:
.LBB1631:
.LBB1632:
	.file 2 "/mnt/disk/jenkins/ci/workspace/chipset_patch_970_docker/opensource/component_code/vendor/huawei/extra/build/build_script/kirin_kernel_release/kernel/include/linux/compiler.h"
	.loc 2 276 0
	str	x0, [x1,264]
.LBE1632:
.LBE1631:
.LBE1630:
	.file 3 "/mnt/disk/jenkins/ci/workspace/chipset_patch_970_docker/opensource/component_code/vendor/huawei/extra/build/build_script/kirin_kernel_release/kernel/include/linux/list.h"
	.loc 3 28 0
	str	x0, [x0,8]
.LBE1629:
.LBE1628:
	.loc 1 1119 0
	ret
	.cfi_endproc
.LFE3148:
	.size	ufs_mq_async_sched_fifo_init, .-ufs_mq_async_sched_fifo_init
	.align	2
	.type	ufs_mq_async_sched_fifo_insert, %function
ufs_mq_async_sched_fifo_insert:
.LFB3149:
	.loc 1 1122 0
	.cfi_startproc
.LVL5:
	.loc 1 1123 0
	ldr	x1, [x1,13016]
.LVL6:
	.loc 1 1124 0
	add	x2, x0, 440
.LBB1633:
.LBB1634:
	.loc 3 77 0
	add	x1, x1, 264
.LVL7:
	ldr	x3, [x1,8]
.LBB1635:
.LBB1636:
	.loc 3 42 0
	str	x2, [x1,8]
	.loc 3 43 0
	str	x1, [x0,440]
.LVL8:
	.loc 3 44 0
	str	x3, [x0,448]
.LBB1637:
.LBB1638:
.LBB1639:
	.loc 2 276 0
	str	x2, [x3]
.LBE1639:
.LBE1638:
.LBE1637:
.LBE1636:
.LBE1635:
.LBE1634:
.LBE1633:
	.loc 1 1125 0
	ret
	.cfi_endproc
.LFE3149:
	.size	ufs_mq_async_sched_fifo_insert, .-ufs_mq_async_sched_fifo_insert
	.align	2
	.type	ufs_mq_async_sched_fifo_seek, %function
ufs_mq_async_sched_fifo_seek:
.LFB3150:
	.loc 1 1128 0
	.cfi_startproc
.LVL9:
	.loc 1 1129 0
	ldr	x0, [x0,13016]
.LVL10:
	.loc 1 1130 0
	add	x2, x0, 264
.LBB1640:
.LBB1641:
	.loc 3 207 0
	ldr	x1, [x0,264]
.LVL11:
	.loc 3 208 0
	cmp	x2, x1
	beq	.L9
.L5:
.LBE1641:
.LBE1640:
.LBB1643:
.LBB1644:
.LBB1645:
.LBB1646:
	.loc 3 102 0
	ldr	x3, [x1]
.LBE1646:
.LBE1645:
.LBE1644:
	.loc 1 1133 0
	sub	x0, x1, #440
.LVL12:
.LBB1659:
.LBB1653:
.LBB1652:
	.loc 3 102 0
	ldr	x2, [x1,8]
.LBB1647:
.LBB1648:
	.loc 3 89 0
	str	x2, [x3,8]
.LBB1649:
.LBB1650:
.LBB1651:
	.loc 2 276 0
	str	x3, [x2]
.LBE1651:
.LBE1650:
.LBE1649:
.LBE1648:
.LBE1647:
.LBE1652:
.LBE1653:
.LBB1654:
.LBB1655:
.LBB1656:
.LBB1657:
.LBB1658:
	str	x1, [x1]
.LBE1658:
.LBE1657:
.LBE1656:
	.loc 3 28 0
	str	x1, [x1,8]
.LBE1655:
.LBE1654:
.LBE1659:
.LBE1643:
	.loc 1 1137 0
	ret
.LVL13:
.L9:
.LBB1660:
.LBB1642:
	.loc 3 208 0 discriminator 1
	ldr	x0, [x0,272]
.LVL14:
	cmp	x2, x0
	bne	.L5
.LBE1642:
.LBE1660:
	.loc 1 1135 0
	mov	x0, 0
	.loc 1 1137 0
	ret
	.cfi_endproc
.LFE3150:
	.size	ufs_mq_async_sched_fifo_seek, .-ufs_mq_async_sched_fifo_seek
	.align	2
	.type	ufs_mq_async_sched_fifo_requeue, %function
ufs_mq_async_sched_fifo_requeue:
.LFB3151:
	.loc 1 1140 0
	.cfi_startproc
.LVL15:
	.loc 1 1141 0
	ldr	x1, [x1,13016]
.LVL16:
	.loc 1 1142 0
	add	x2, x0, 440
.LBB1661:
.LBB1662:
	.loc 3 63 0
	add	x4, x1, 264
	ldr	x3, [x1,264]
.LBB1663:
.LBB1664:
	.loc 3 42 0
	str	x2, [x3,8]
	.loc 3 43 0
	str	x3, [x0,440]
	.loc 3 44 0
	str	x4, [x0,448]
.LBB1665:
.LBB1666:
.LBB1667:
	.loc 2 276 0
	str	x2, [x1,264]
.LBE1667:
.LBE1666:
.LBE1665:
.LBE1664:
.LBE1663:
.LBE1662:
.LBE1661:
	.loc 1 1143 0
	ret
	.cfi_endproc
.LFE3151:
	.size	ufs_mq_async_sched_fifo_requeue, .-ufs_mq_async_sched_fifo_requeue
	.align	2
	.type	ufs_mq_async_sched_fifo_is_empty, %function
ufs_mq_async_sched_fifo_is_empty:
.LFB3153:
	.loc 1 1166 0
	.cfi_startproc
.LVL17:
	.loc 1 1167 0
	ldr	x0, [x0,13016]
.LVL18:
	.loc 1 1168 0
	add	x1, x0, 264
.LBB1668:
.LBB1669:
.LBB1670:
.LBB1671:
.LBB1672:
	.loc 2 247 0 discriminator 5
	ldr	x0, [x0,264]
.LVL19:
.LBE1672:
.LBE1671:
.LBE1670:
	.loc 3 189 0 discriminator 5
	cmp	x1, x0
.LBE1669:
.LBE1668:
	.loc 1 1169 0
	cset	w0, eq
	ret
	.cfi_endproc
.LFE3153:
	.size	ufs_mq_async_sched_fifo_is_empty, .-ufs_mq_async_sched_fifo_is_empty
	.align	2
	.type	ufs_mq_req_alloc_prep, %function
ufs_mq_req_alloc_prep:
.LFB3182:
	.loc 1 1632 0
	.cfi_startproc
.LVL20:
	.loc 1 1632 0
	uxtb	w5, w5
	.loc 1 1633 0 discriminator 2
	orr	x1, x4, 8
.LVL21:
	cmp	w5, wzr
	csel	x4, x1, x4, eq
.LVL22:
	.loc 1 1633 0 is_stmt 0 discriminator 4
	str	x4, [x0,8]
	.loc 1 1635 0 is_stmt 1
	mov	w0, 0
.LVL23:
	ret
	.cfi_endproc
.LFE3182:
	.size	ufs_mq_req_alloc_prep, .-ufs_mq_req_alloc_prep
	.align	2
	.type	ufs_mq_req_init, %function
ufs_mq_req_init:
.LFB3183:
	.loc 1 1639 0
	.cfi_startproc
.LVL24:
	.loc 1 1648 0
	add	x3, x2, 472
	.loc 1 1650 0
	mov	w0, 0
.LVL25:
	.loc 1 1646 0
	str	x1, [x2,280]
	.loc 1 1647 0
	str	xzr, [x2,264]
	.loc 1 1648 0
	str	x3, [x2,472]
	.loc 1 1650 0
	ret
	.cfi_endproc
.LFE3183:
	.size	ufs_mq_req_init, .-ufs_mq_req_init
	.align	2
	.type	ufs_mq_req_deinit, %function
ufs_mq_req_deinit:
.LFB3185:
	.loc 1 1673 0
	.cfi_startproc
.LVL26:
	.loc 1 1678 0
	mov	w0, 0
.LVL27:
	ret
	.cfi_endproc
.LFE3185:
	.size	ufs_mq_req_deinit, .-ufs_mq_req_deinit
	.align	2
	.type	ufs_mq_ctx_put, %function
ufs_mq_ctx_put:
.LFB3189:
	.loc 1 1743 0
	.cfi_startproc
.LVL28:
	.loc 1 1745 0
.LBB1673:
.LBB1674:
.LBB1675:
.LBB1676:
.LBB1677:
	.file 4 "/mnt/disk/jenkins/ci/workspace/chipset_patch_970_docker/opensource/component_code/vendor/huawei/extra/build/build_script/kirin_kernel_release/kernel/arch/arm64/include/asm/current.h"
	.loc 4 20 0
#APP
// 20 "/mnt/disk/jenkins/ci/workspace/chipset_patch_970_docker/opensource/component_code/vendor/huawei/extra/build/build_script/kirin_kernel_release/kernel/arch/arm64/include/asm/current.h" 1
	mrs x2, sp_el0
// 0 "" 2
.LVL29:
#NO_APP
.LBE1677:
.LBE1676:
.LBE1675:
	.file 5 "/mnt/disk/jenkins/ci/workspace/chipset_patch_970_docker/opensource/component_code/vendor/huawei/extra/build/build_script/kirin_kernel_release/kernel/include/asm-generic/preempt.h"
	.loc 5 58 0
	ldr	w1, [x2,16]
.LBE1674:
.LBE1673:
	.loc 1 1749 0
	mov	w0, 0
.LVL30:
.LBB1679:
.LBB1678:
	.loc 5 58 0
	sub	w1, w1, #1
	str	w1, [x2,16]
.LBE1678:
.LBE1679:
	.loc 1 1749 0
	ret
	.cfi_endproc
.LFE3189:
	.size	ufs_mq_ctx_put, .-ufs_mq_ctx_put
	.align	2
	.type	ufs_mq_hctx_get_by_req, %function
ufs_mq_hctx_get_by_req:
.LFB3190:
	.loc 1 1752 0
	.cfi_startproc
.LVL31:
	.loc 1 1752 0
	mov	x3, x0
	.loc 1 1756 0
	mov	w0, 0
.LVL32:
	.loc 1 1753 0
	ldr	x2, [x3,64]
.LVL33:
	.loc 1 1754 0
	ldr	x4, [x3,280]
.LBB1680:
.LBB1681:
	.file 6 "/mnt/disk/jenkins/ci/workspace/chipset_patch_970_docker/opensource/component_code/vendor/huawei/extra/build/build_script/kirin_kernel_release/kernel/block/blk-mq.h"
	.loc 6 53 0
	ldr	x3, [x2,288]
.LVL34:
.LBE1681:
.LBE1680:
	.loc 1 1754 0
	ldr	w4, [x4,64]
.LBB1683:
.LBB1682:
	.loc 6 53 0
	ldr	x2, [x2,312]
.LVL35:
	ldr	w3, [x3,w4,sxtw 2]
	ldr	x2, [x2,w3,uxtw 3]
.LBE1682:
.LBE1683:
	.loc 1 1754 0
	str	x2, [x1]
	.loc 1 1756 0
	ret
	.cfi_endproc
.LFE3190:
	.size	ufs_mq_hctx_get_by_req, .-ufs_mq_hctx_get_by_req
	.align	2
	.type	ufs_mq_hctx_free_in_ctx_map, %function
ufs_mq_hctx_free_in_ctx_map:
.LFB3191:
	.loc 1 1759 0
	.cfi_startproc
.LVL36:
	.loc 1 1760 0
	str	xzr, [x1,184]
	.loc 1 1762 0
	mov	w0, 0
.LVL37:
	ret
	.cfi_endproc
.LFE3191:
	.size	ufs_mq_hctx_free_in_ctx_map, .-ufs_mq_hctx_free_in_ctx_map
	.align	2
	.type	ufs_mq_poll_enable, %function
ufs_mq_poll_enable:
.LFB3196:
	.loc 1 1797 0
	.cfi_startproc
.LVL38:
.LBB1684:
.LBB1685:
.LBB1686:
	.file 7 "/mnt/disk/jenkins/ci/workspace/chipset_patch_970_docker/opensource/component_code/vendor/huawei/extra/build/build_script/kirin_kernel_release/kernel/include/asm-generic/bitops/non-atomic.h"
	.loc 7 105 0
	adrp	x7, __cpu_online_mask
.LBE1686:
.LBE1685:
.LBE1684:
	.loc 1 1805 0
	mov	w0, 0
.LVL39:
.LBB1689:
.LBB1688:
.LBB1687:
	.loc 7 105 0
	ldr	x4, [x7,#:lo12:__cpu_online_mask]
	ldr	x3, [x7,#:lo12:__cpu_online_mask]
	ldr	x1, [x7,#:lo12:__cpu_online_mask]
.LVL40:
	and	w4, w4, 1
	ldr	x6, [x7,#:lo12:__cpu_online_mask]
	ubfx	x3, x3, 1, 1
	ldr	x5, [x7,#:lo12:__cpu_online_mask]
	add	w3, w3, w4
	ubfx	x1, x1, 2, 1
	ldr	x4, [x7,#:lo12:__cpu_online_mask]
	add	w1, w1, w3
	ubfx	x6, x6, 3, 1
	ldr	x3, [x7,#:lo12:__cpu_online_mask]
	add	w6, w6, w1
	ubfx	x5, x5, 4, 1
	ldr	x1, [x7,#:lo12:__cpu_online_mask]
	add	w5, w5, w6
	ubfx	x4, x4, 5, 1
	add	w4, w4, w5
	ubfx	x3, x3, 6, 1
	add	w3, w3, w4
	ubfx	x1, x1, 7, 1
	add	w1, w1, w3
.LBE1687:
.LBE1688:
.LBE1689:
	.loc 1 1803 0
	cmp	w1, 1
	cset	w1, gt
	strb	w1, [x2]
	.loc 1 1805 0
	ret
	.cfi_endproc
.LFE3196:
	.size	ufs_mq_poll_enable, .-ufs_mq_poll_enable
	.align	2
	.global	blk_mq_tagset_ufs_mq_iosched_enable
	.type	blk_mq_tagset_ufs_mq_iosched_enable, %function
blk_mq_tagset_ufs_mq_iosched_enable:
.LFB3201:
	.loc 1 1957 0
	.cfi_startproc
.LVL41:
	.loc 1 1959 0
	cbnz	w1, .L24
	.loc 1 1962 0
	ldr	x1, [x0,40]
.LVL42:
	add	x0, x0, 16
.LVL43:
	and	x1, x1, -65
	str	x1, [x0,24]
	.loc 1 1963 0
	ret
.LVL44:
.L24:
	.loc 1 1960 0
	add	x0, x0, 16
.LVL45:
	ldr	x1, [x0,24]
.LVL46:
	orr	x1, x1, 64
	str	x1, [x0,24]
	.loc 1 1963 0
	ret
	.cfi_endproc
.LFE3201:
	.size	blk_mq_tagset_ufs_mq_iosched_enable, .-blk_mq_tagset_ufs_mq_iosched_enable
	.align	2
	.type	ufs_mq_status_dump, %function
ufs_mq_status_dump:
.LFB3197:
	.loc 1 1808 0
	.cfi_startproc
.LVL47:
	stp	x29, x30, [sp, -32]!
	.cfi_def_cfa_offset 32
	.cfi_offset 29, -32
	.cfi_offset 30, -24
	add	x29, sp, 0
	.cfi_def_cfa_register 29
	stp	x19, x20, [sp,16]
	.cfi_offset 19, -16
	.cfi_offset 20, -8
	.loc 1 1809 0
	ldr	x19, [x0,13016]
.LVL48:
	.loc 1 1811 0
	cbz	x19, .L27
	mov	x4, x0
.LBB1690:
.LBB1691:
.LBB1692:
	.loc 2 247 0 discriminator 4
	ldr	w2, [x0,1164]
.LVL49:
.LBE1692:
.LBE1691:
.LBE1690:
.LBB1693:
.LBB1694:
.LBB1695:
	ldr	w3, [x0,1168]
.LBE1695:
.LBE1694:
.LBE1693:
	.loc 1 1814 0 discriminator 18
	adrp	x0, .LC0
.LVL50:
	add	x0, x0, :lo12:.LC0
	mov	x20, x1
.LBB1696:
.LBB1697:
.LBB1698:
	.loc 2 247 0 discriminator 4
	ldr	w4, [x4,1172]
.LVL51:
.LBE1698:
.LBE1697:
.LBE1696:
	.loc 1 1814 0 discriminator 18
	bl	printk
.LVL52:
.LBB1699:
.LBB1700:
.LBB1701:
	.loc 2 247 0 discriminator 4
	ldr	w2, [x19,8]
.LBE1701:
.LBE1700:
.LBE1699:
	.loc 1 1817 0 discriminator 18
	adrp	x0, .LC1
.LBB1702:
.LBB1703:
.LBB1704:
	.loc 2 247 0 discriminator 4
	ldr	w3, [x19,12]
.LBE1704:
.LBE1703:
.LBE1702:
	.loc 1 1817 0 discriminator 18
	mov	x1, x20
.LBB1705:
.LBB1706:
.LBB1707:
	.loc 2 247 0 discriminator 4
	ldr	w4, [x19,16]
.LBE1707:
.LBE1706:
.LBE1705:
	.loc 1 1817 0 discriminator 18
	add	x0, x0, :lo12:.LC1
	bl	printk
.LVL53:
	.loc 1 1820 0
	mov	w0, 0
	.loc 1 1821 0
	ldp	x19, x20, [sp,16]
	.cfi_remember_state
	.cfi_restore 20
	.cfi_restore 19
.LVL54:
	ldp	x29, x30, [sp], 32
	.cfi_restore 30
	.cfi_restore 29
	.cfi_def_cfa 31, 0
	ret
.LVL55:
.L27:
	.cfi_restore_state
	.loc 1 1812 0
	mov	w0, -22
.LVL56:
	.loc 1 1821 0
	ldp	x19, x20, [sp,16]
	.cfi_restore 19
	.cfi_restore 20
.LVL57:
	ldp	x29, x30, [sp], 32
	.cfi_restore 29
	.cfi_restore 30
	.cfi_def_cfa 31, 0
	ret
	.cfi_endproc
.LFE3197:
	.size	ufs_mq_status_dump, .-ufs_mq_status_dump
	.align	2
	.type	ufs_mq_queue_rq, %function
ufs_mq_queue_rq:
.LFB3132:
	.loc 1 753 0
	.cfi_startproc
.LVL58:
	stp	x29, x30, [sp, -48]!
	.cfi_def_cfa_offset 48
	.cfi_offset 29, -48
	.cfi_offset 30, -40
	add	x29, sp, 0
	.cfi_def_cfa_register 29
	stp	x19, x20, [sp,16]
	.cfi_offset 19, -32
	.cfi_offset 20, -24
	.loc 1 753 0
	mov	x19, x0
	mov	x0, x1
.LVL59:
	.loc 1 754 0
	ldr	w5, [x19,84]
	cmp	w5, 1
	bne	.L40
	ldr	x5, [x19,88]
.LBB1708:
.LBB1709:
.LBB1710:
.LBB1711:
	.loc 1 643 0
	tbz	x5, 3, .L31
	.loc 1 644 0
	tbnz	x5, 11, .L41
.LBB1712:
.LBB1713:
	.file 8 "/mnt/disk/jenkins/ci/workspace/chipset_patch_970_docker/opensource/component_code/vendor/huawei/extra/build/build_script/kirin_kernel_release/kernel/arch/arm64/include/asm/atomic_ll_sc.h"
	.loc 8 113 0
	add	x6, x2, 12
#APP
// 113 "/mnt/disk/jenkins/ci/workspace/chipset_patch_970_docker/opensource/component_code/vendor/huawei/extra/build/build_script/kirin_kernel_release/kernel/arch/arm64/include/asm/atomic_ll_sc.h" 1
	// atomic_add_return
	prfm	pstl1strm, [x6]
1:	ldxr	w5, [x6]
	add	w5, w5, 1
	stlxr	w1, w5, [x6]
	cbnz	w1, 1b
	dmb ish
// 0 "" 2
.LVL60:
#NO_APP
.LBE1713:
.LBE1712:
	.loc 1 653 0
	ldr	w1, [x2,328]
.LVL61:
	cmp	w5, w1
	bgt	.L36
.LVL62:
.L33:
.LBE1711:
.LBE1710:
	.loc 1 733 0
	ldr	x4, [x4,280]
.LVL63:
	mov	x1, x3
.LVL64:
	str	x2, [x29,40]
	ldr	x3, [x4]
.LVL65:
	blr	x3
.LVL66:
	mov	w20, w0
.LVL67:
	.loc 1 735 0
	mov	w1, 6
	mov	x0, x19
	bl	hisi_blk_latency_req_check
.LVL68:
	.loc 1 737 0
	ldr	x2, [x29,40]
.LVL69:
	cbnz	w20, .L39
	mov	w0, 0
.LVL70:
.L30:
.LBE1709:
.LBE1708:
	.loc 1 757 0
	ldp	x19, x20, [sp,16]
	.cfi_remember_state
	.cfi_restore 20
	.cfi_restore 19
.LVL71:
	ldp	x29, x30, [sp], 48
	.cfi_restore 30
	.cfi_restore 29
	.cfi_def_cfa 31, 0
	ret
.LVL72:
.L40:
	.cfi_restore_state
	.loc 1 755 0
	ldr	x2, [x4,280]
.LVL73:
	mov	x1, x3
	ldr	x2, [x2]
	blr	x2
.LVL74:
	.loc 1 757 0
	ldp	x19, x20, [sp,16]
	.cfi_remember_state
	.cfi_restore 19
	.cfi_restore 20
.LVL75:
	ldp	x29, x30, [sp], 48
	.cfi_restore 29
	.cfi_restore 30
	.cfi_def_cfa 31, 0
	ret
.LVL76:
.L31:
	.cfi_restore_state
.LBB1745:
.LBB1743:
.LBB1720:
.LBB1718:
.LBB1714:
.LBB1715:
	.loc 8 113 0
	add	x6, x2, 16
#APP
// 113 "/mnt/disk/jenkins/ci/workspace/chipset_patch_970_docker/opensource/component_code/vendor/huawei/extra/build/build_script/kirin_kernel_release/kernel/arch/arm64/include/asm/atomic_ll_sc.h" 1
	// atomic_add_return
	prfm	pstl1strm, [x6]
1:	ldxr	w5, [x6]
	add	w5, w5, 1
	stlxr	w1, w5, [x6]
	cbnz	w1, 1b
	dmb ish
// 0 "" 2
.LVL77:
#NO_APP
.LBE1715:
.LBE1714:
	.loc 1 668 0
	ldr	w1, [x2,332]
.LVL78:
	cmp	w5, w1
	ble	.L33
.LVL79:
.L36:
	.loc 1 658 0
	mov	w0, 2
.LVL80:
	mov	w20, 1
.LVL81:
	str	w0, [x19,276]
.L35:
	ldr	x0, [x19,88]
.LBE1718:
.LBE1720:
.LBB1721:
.LBB1722:
	.loc 1 695 0
	tbz	x0, 3, .L37
	.loc 1 696 0
	tbnz	x0, 11, .L42
.LBB1723:
.LBB1724:
	.loc 8 114 0
	add	x2, x2, 12
.LVL82:
#APP
// 114 "/mnt/disk/jenkins/ci/workspace/chipset_patch_970_docker/opensource/component_code/vendor/huawei/extra/build/build_script/kirin_kernel_release/kernel/arch/arm64/include/asm/atomic_ll_sc.h" 1
	// atomic_sub
	prfm	pstl1strm, [x2]
1:	ldxr	w0, [x2]
	sub	w0, w0, 1
	stxr	w1, w0, [x2]
	cbnz	w1, 1b
// 0 "" 2
.LVL83:
#NO_APP
.LBE1724:
.LBE1723:
.LBE1722:
.LBE1721:
	.loc 1 749 0
	mov	w0, w20
.LVL84:
.LBE1743:
.LBE1745:
	.loc 1 757 0
	ldp	x19, x20, [sp,16]
	.cfi_remember_state
	.cfi_restore 19
	.cfi_restore 20
.LVL85:
	ldp	x29, x30, [sp], 48
	.cfi_restore 29
	.cfi_restore 30
	.cfi_def_cfa 31, 0
	ret
.LVL86:
.L39:
	.cfi_restore_state
.LBB1746:
.LBB1744:
	.loc 1 740 0
	mov	w0, 1
	str	w0, [x19,276]
.LBB1731:
.LBB1732:
.LBB1733:
	.loc 2 247 0 discriminator 4
	ldr	w3, [x2,8]
.LBE1733:
.LBE1732:
.LBE1731:
.LBB1734:
.LBB1735:
.LBB1736:
	ldr	w0, [x2,12]
.LBE1736:
.LBE1735:
.LBE1734:
.LBB1737:
.LBB1738:
.LBB1739:
	ldr	w1, [x2,16]
.LBE1739:
.LBE1738:
.LBE1737:
	.loc 1 742 0 discriminator 11
	add	w0, w3, w0
	.loc 1 742 0 is_stmt 0 discriminator 17
	add	w0, w0, w1
	cmp	w0, 8
	bgt	.L35
	.loc 1 743 0 is_stmt 1
	mov	w0, 3
	str	w0, [x19,276]
	b	.L35
.LVL87:
.L41:
.LBB1740:
.LBB1719:
.LBB1716:
.LBB1717:
	.loc 8 113 0
	add	x6, x2, 8
#APP
// 113 "/mnt/disk/jenkins/ci/workspace/chipset_patch_970_docker/opensource/component_code/vendor/huawei/extra/build/build_script/kirin_kernel_release/kernel/arch/arm64/include/asm/atomic_ll_sc.h" 1
	// atomic_add
	prfm	pstl1strm, [x6]
1:	ldxr	w1, [x6]
	add	w1, w1, 1
	stxr	w5, w1, [x6]
	cbnz	w5, 1b
// 0 "" 2
.LVL88:
#NO_APP
	b	.L33
.LVL89:
.L37:
.LBE1717:
.LBE1716:
.LBE1719:
.LBE1740:
.LBB1741:
.LBB1729:
.LBB1725:
.LBB1726:
	.loc 8 114 0
	add	x2, x2, 16
.LVL90:
#APP
// 114 "/mnt/disk/jenkins/ci/workspace/chipset_patch_970_docker/opensource/component_code/vendor/huawei/extra/build/build_script/kirin_kernel_release/kernel/arch/arm64/include/asm/atomic_ll_sc.h" 1
	// atomic_sub
	prfm	pstl1strm, [x2]
1:	ldxr	w0, [x2]
	sub	w0, w0, 1
	stxr	w1, w0, [x2]
	cbnz	w1, 1b
// 0 "" 2
.LVL91:
#NO_APP
.LBE1726:
.LBE1725:
.LBE1729:
.LBE1741:
	.loc 1 749 0
	mov	w0, w20
.LVL92:
	b	.L30
.LVL93:
.L42:
.LBB1742:
.LBB1730:
.LBB1727:
.LBB1728:
	.loc 8 114 0
	add	x2, x2, 8
.LVL94:
#APP
// 114 "/mnt/disk/jenkins/ci/workspace/chipset_patch_970_docker/opensource/component_code/vendor/huawei/extra/build/build_script/kirin_kernel_release/kernel/arch/arm64/include/asm/atomic_ll_sc.h" 1
	// atomic_sub
	prfm	pstl1strm, [x2]
1:	ldxr	w0, [x2]
	sub	w0, w0, 1
	stxr	w1, w0, [x2]
	cbnz	w1, 1b
// 0 "" 2
.LVL95:
#NO_APP
.LBE1728:
.LBE1727:
.LBE1730:
.LBE1742:
	.loc 1 749 0
	mov	w0, w20
.LVL96:
	b	.L30
.LBE1744:
.LBE1746:
	.cfi_endproc
.LFE3132:
	.size	ufs_mq_queue_rq, .-ufs_mq_queue_rq
	.align	2
	.type	ufs_mq_insert_async_list, %function
ufs_mq_insert_async_list:
.LFB3165:
	.loc 1 1327 0
	.cfi_startproc
.LVL97:
	stp	x29, x30, [sp, -64]!
	.cfi_def_cfa_offset 64
	.cfi_offset 29, -64
	.cfi_offset 30, -56
	add	x29, sp, 0
	.cfi_def_cfa_register 29
	stp	x19, x20, [sp,16]
	.cfi_offset 19, -48
	.cfi_offset 20, -40
	mov	x19, x1
	str	x23, [sp,48]
	stp	x21, x22, [sp,32]
	.cfi_offset 23, -16
	.cfi_offset 21, -32
	.cfi_offset 22, -24
	.loc 1 1331 0
	mov	w1, 5
.LVL98:
	.loc 1 1327 0
	mov	x22, x0
	.loc 1 1329 0
	ldr	x20, [x19,13016]
.LVL99:
	.loc 1 1331 0
	bl	hisi_blk_latency_req_check
.LVL100:
	.loc 1 1332 0
	ldr	x0, [x19,13024]
	cbz	x0, .L43
	.loc 1 1332 0 is_stmt 0 discriminator 1
	ldr	x21, [x0,208]
	cbz	x21, .L43
.LBB1747:
	.loc 1 1334 0 is_stmt 1
	ldr	x0, [x21]
	ldr	x0, [x0,16]
	cbz	x0, .L43
.LBB1748:
.LBB1749:
	.file 9 "/mnt/disk/jenkins/ci/workspace/chipset_patch_970_docker/opensource/component_code/vendor/huawei/extra/build/build_script/kirin_kernel_release/kernel/include/linux/spinlock.h"
	.loc 9 291 0
	add	x20, x20, 304
.LVL101:
.LBE1749:
.LBE1748:
	.loc 1 1335 0 discriminator 1
	mov	x0, x20
	bl	_raw_spin_lock_irqsave
.LVL102:
	mov	x23, x0
.LVL103:
	.loc 1 1336 0
	ldr	x2, [x21]
	mov	x0, x22
	mov	x1, x19
	ldr	x2, [x2,16]
	blr	x2
.LVL104:
.LBB1750:
.LBB1751:
	.loc 9 362 0
	mov	x0, x20
	mov	x1, x23
	bl	_raw_spin_unlock_irqrestore
.LVL105:
.L43:
.LBE1751:
.LBE1750:
.LBE1747:
	.loc 1 1340 0
	ldp	x19, x20, [sp,16]
	.cfi_restore 20
	.cfi_restore 19
.LVL106:
	ldp	x21, x22, [sp,32]
	.cfi_restore 22
	.cfi_restore 21
.LVL107:
	ldr	x23, [sp,48]
	.cfi_restore 23
.LVL108:
	ldp	x29, x30, [sp], 64
	.cfi_restore 30
	.cfi_restore 29
	.cfi_def_cfa 31, 0
	ret
	.cfi_endproc
.LFE3165:
	.size	ufs_mq_insert_async_list, .-ufs_mq_insert_async_list
	.align	2
	.type	ufs_mq_run_delay_queue, %function
ufs_mq_run_delay_queue:
.LFB3194:
	.loc 1 1781 0
	.cfi_startproc
.LVL109:
	stp	x29, x30, [sp, -64]!
	.cfi_def_cfa_offset 64
	.cfi_offset 29, -64
	.cfi_offset 30, -56
.LBB1752:
.LBB1753:
.LBB1754:
.LBB1755:
	.file 10 "/mnt/disk/jenkins/ci/workspace/chipset_patch_970_docker/opensource/component_code/vendor/huawei/extra/build/build_script/kirin_kernel_release/kernel/include/linux/workqueue.h"
	.loc 10 492 0
	mov	x3, 0
.LBE1755:
.LBE1754:
.LBE1753:
.LBE1752:
	.loc 1 1781 0
	add	x29, sp, 0
	.cfi_def_cfa_register 29
	stp	x19, x20, [sp,16]
	.cfi_offset 19, -48
	.cfi_offset 20, -40
	mov	x19, x0
.LBB1762:
.LBB1760:
.LBB1758:
.LBB1756:
	.loc 10 492 0
	mov	w0, 8
.LVL110:
.LBE1756:
.LBE1758:
.LBE1760:
.LBE1762:
	.loc 1 1781 0
	stp	x21, x22, [sp,32]
	.cfi_offset 21, -32
	.cfi_offset 22, -24
.LBB1763:
.LBB1761:
	.loc 1 762 0
	adrp	x22, .LANCHOR0
	ldr	x2, [x19,13016]
.LBB1759:
.LBB1757:
	.loc 10 492 0
	ldr	x1, [x22,#:lo12:.LANCHOR0]
	add	x2, x2, 24
	bl	queue_delayed_work_on
.LVL111:
.LBE1757:
.LBE1759:
.LBE1761:
.LBE1763:
.LBB1764:
.LBB1765:
	.loc 1 1363 0
	ldr	x0, [x19,13024]
	.loc 1 1362 0
	ldr	x2, [x19,13016]
.LVL112:
	.loc 1 1363 0
	cbz	x0, .L55
	.loc 1 1363 0 is_stmt 0 discriminator 1
	ldr	x21, [x0,208]
	cbz	x21, .L55
.LBB1766:
	.loc 1 1365 0 is_stmt 1
	ldr	x0, [x21]
	ldr	x0, [x0,48]
	cbz	x0, .L55
.LBB1767:
.LBB1768:
	.loc 9 291 0
	add	x20, x2, 304
.LBE1768:
.LBE1767:
	.loc 1 1366 0 discriminator 1
	mov	x0, x20
	bl	_raw_spin_lock_irqsave
.LVL113:
	str	x0, [x29,56]
	.loc 1 1367 0
	ldr	x2, [x21]
	mov	x0, x19
.LVL114:
	ldr	x2, [x2,48]
	blr	x2
.LVL115:
	uxtb	w21, w0
.LVL116:
.LBB1769:
.LBB1770:
	.loc 9 362 0
	ldr	x1, [x29,56]
.LVL117:
	mov	x0, x20
	bl	_raw_spin_unlock_irqrestore
.LVL118:
.LBE1770:
.LBE1769:
.LBE1766:
.LBE1765:
.LBE1764:
	.loc 1 1783 0
	cbz	w21, .L60
	.loc 1 1786 0
	ldp	x19, x20, [sp,16]
	.cfi_remember_state
	.cfi_restore 20
	.cfi_restore 19
.LVL119:
	ldp	x21, x22, [sp,32]
	.cfi_restore 22
	.cfi_restore 21
.LVL120:
	mov	w0, 0
	ldp	x29, x30, [sp], 64
	.cfi_restore 30
	.cfi_restore 29
	.cfi_def_cfa 31, 0
	ret
.LVL121:
.L60:
	.cfi_restore_state
	ldr	x2, [x19,13016]
.LVL122:
.L55:
.LBB1771:
.LBB1772:
	.loc 1 1317 0
	add	x22, x22, :lo12:.LANCHOR0
.LBB1773:
.LBB1774:
	.loc 10 492 0
	add	x2, x2, 128
.LVL123:
	mov	x3, 0
	mov	w0, 8
	ldr	x1, [x22,8]
	bl	queue_delayed_work_on
.LVL124:
.LBE1774:
.LBE1773:
.LBE1772:
.LBE1771:
	.loc 1 1786 0
	mov	w0, 0
	ldp	x19, x20, [sp,16]
	.cfi_restore 19
	.cfi_restore 20
.LVL125:
	ldp	x21, x22, [sp,32]
	.cfi_restore 21
	.cfi_restore 22
.LVL126:
	ldp	x29, x30, [sp], 64
	.cfi_restore 29
	.cfi_restore 30
	.cfi_def_cfa 31, 0
	ret
	.cfi_endproc
.LFE3194:
	.size	ufs_mq_run_delay_queue, .-ufs_mq_run_delay_queue
	.align	2
	.type	ufs_mq_async_sched_fifo_attempt_merge_bio, %function
ufs_mq_async_sched_fifo_attempt_merge_bio:
.LFB3152:
	.loc 1 1146 0
	.cfi_startproc
.LVL127:
	stp	x29, x30, [sp, -64]!
	.cfi_def_cfa_offset 64
	.cfi_offset 29, -64
	.cfi_offset 30, -56
	add	x29, sp, 0
	.cfi_def_cfa_register 29
	stp	x21, x22, [sp,32]
	str	x23, [sp,48]
	.cfi_offset 21, -32
	.cfi_offset 22, -24
	.cfi_offset 23, -16
	mov	x21, x0
	stp	x19, x20, [sp,16]
	.cfi_offset 19, -48
	.cfi_offset 20, -40
	.loc 1 1146 0
	mov	x23, x1
	.loc 1 1148 0
	ldr	x0, [x1,13016]
.LVL128:
	.loc 1 1149 0 discriminator 1
	add	x22, x0, 264
.LBB1775:
	.loc 1 1149 0 is_stmt 0
	ldr	x19, [x0,272]
.LVL129:
.LBE1775:
	.loc 1 1149 0 discriminator 1
	cmp	x22, x19
.LBB1776:
	.loc 1 1149 0
	sub	x19, x19, #440
.LVL130:
.LBE1776:
	.loc 1 1149 0 discriminator 1
	bne	.L72
	b	.L66
.LVL131:
.L68:
.LBB1777:
	.loc 1 1149 0 discriminator 2
	ldr	x19, [x19,448]
.LVL132:
.LBE1777:
	.loc 1 1149 0 discriminator 1
	cmp	x22, x19
.LBB1778:
	.loc 1 1149 0 discriminator 2
	sub	x19, x19, #440
.LVL133:
.LBE1778:
	.loc 1 1149 0 discriminator 1
	beq	.L66
.LVL134:
.L72:
.LBB1779:
	.loc 1 1151 0 is_stmt 1
	mov	x0, x19
.LVL135:
	mov	x1, x21
	bl	blk_rq_merge_ok
.LVL136:
	uxtb	w20, w0
	cbz	w20, .L68
	.loc 1 1153 0
	mov	x1, x21
	mov	x0, x19
	bl	blk_try_merge
.LVL137:
	.loc 1 1154 0
	cmp	w0, 2
	beq	.L76
	.loc 1 1157 0
	cmp	w0, 1
	bne	.L68
	.loc 1 1158 0
	mov	x1, x19
	mov	x0, x23
.LVL138:
	mov	x2, x21
	bl	bio_attempt_front_merge
.LVL139:
	uxtb	w0, w0
	cbz	w0, .L68
.L63:
.LBE1779:
	.loc 1 1163 0
	mov	w0, w20
	ldr	x23, [sp,48]
	.cfi_remember_state
	.cfi_restore 23
.LVL140:
	ldp	x19, x20, [sp,16]
	.cfi_restore 20
	.cfi_restore 19
.LVL141:
	ldp	x21, x22, [sp,32]
	.cfi_restore 22
	.cfi_restore 21
.LVL142:
	ldp	x29, x30, [sp], 64
	.cfi_restore 30
	.cfi_restore 29
	.cfi_def_cfa 31, 0
	ret
.LVL143:
.L76:
	.cfi_restore_state
.LBB1780:
	.loc 1 1155 0
	mov	x1, x19
	mov	x0, x23
.LVL144:
	mov	x2, x21
	bl	bio_attempt_back_merge
.LVL145:
	uxtb	w0, w0
	cbnz	w0, .L63
.LBE1780:
.LBB1781:
	.loc 1 1149 0 discriminator 2
	ldr	x19, [x19,448]
.LVL146:
.LBE1781:
	.loc 1 1149 0 is_stmt 0 discriminator 1
	cmp	x22, x19
.LBB1782:
	.loc 1 1149 0 discriminator 2
	sub	x19, x19, #440
.LVL147:
.LBE1782:
	.loc 1 1149 0 discriminator 1
	bne	.L72
.LVL148:
.L66:
	.loc 1 1162 0 is_stmt 1
	mov	w20, 0
	.loc 1 1163 0
	ldr	x23, [sp,48]
	.cfi_restore 23
.LVL149:
	mov	w0, w20
.LVL150:
	ldp	x19, x20, [sp,16]
	.cfi_restore 19
	.cfi_restore 20
.LVL151:
	ldp	x21, x22, [sp,32]
	.cfi_restore 21
	.cfi_restore 22
.LVL152:
	ldp	x29, x30, [sp], 64
	.cfi_restore 29
	.cfi_restore 30
	.cfi_def_cfa 31, 0
	ret
	.cfi_endproc
.LFE3152:
	.size	ufs_mq_async_sched_fifo_attempt_merge_bio, .-ufs_mq_async_sched_fifo_attempt_merge_bio
	.align	2
	.type	ufs_mq_dump_request, %function
ufs_mq_dump_request:
.LFB3198:
	.loc 1 1824 0
	.cfi_startproc
.LVL153:
	stp	x29, x30, [sp, -48]!
	.cfi_def_cfa_offset 48
	.cfi_offset 29, -48
	.cfi_offset 30, -40
	add	x29, sp, 0
	.cfi_def_cfa_register 29
	stp	x19, x20, [sp,16]
	stp	x21, x22, [sp,32]
	.cfi_offset 19, -32
	.cfi_offset 20, -24
	.cfi_offset 21, -16
	.cfi_offset 22, -8
	.loc 1 1825 0
	ldr	x19, [x0,13016]
.LVL154:
	.loc 1 1827 0
	cbz	x19, .L77
.LBB1783:
.LBB1784:
.LBB1785:
.LBB1786:
	.loc 2 247 0 discriminator 5
	ldr	x0, [x19,232]
.LVL155:
.LBE1786:
.LBE1785:
.LBE1784:
.LBE1783:
	.loc 1 1830 0
	add	x21, x19, 232
	mov	x20, x1
	cmp	x21, x0
	bne	.L79
.LVL156:
.L82:
.LBB1787:
.LBB1788:
.LBB1789:
.LBB1790:
	.loc 2 247 0 discriminator 5
	ldr	x0, [x19,248]
.LBE1790:
.LBE1789:
.LBE1788:
.LBE1787:
	.loc 1 1837 0
	add	x21, x19, 248
	cmp	x21, x0
	bne	.L93
.LVL157:
.L81:
.LBB1791:
.LBB1792:
.LBB1793:
.LBB1794:
	.loc 2 247 0 discriminator 5
	ldr	x0, [x19,264]
.LBE1794:
.LBE1793:
.LBE1792:
.LBE1791:
	.loc 1 1844 0
	add	x21, x19, 264
	cmp	x21, x0
	bne	.L94
.LVL158:
.L77:
	.loc 1 1851 0
	ldp	x19, x20, [sp,16]
	.cfi_remember_state
	.cfi_restore 20
	.cfi_restore 19
.LVL159:
	ldp	x21, x22, [sp,32]
	.cfi_restore 22
	.cfi_restore 21
.LVL160:
	ldp	x29, x30, [sp], 48
	.cfi_restore 30
	.cfi_restore 29
	.cfi_def_cfa 31, 0
	ret
.LVL161:
.L79:
	.cfi_restore_state
.LBB1795:
	.loc 1 1832 0
	adrp	x0, .LC2
	add	x0, x0, :lo12:.LC2
	bl	printk
.LVL162:
.LBB1796:
	.loc 1 1833 0
	ldr	x22, [x19,232]
.LVL163:
.LBE1796:
	.loc 1 1833 0 is_stmt 0 discriminator 1
	cmp	x21, x22
	beq	.L82
.L83:
	.loc 1 1834 0 is_stmt 1
	mov	x0, x22
	mov	x1, x20
	bl	hisi_blk_dump_request
.LVL164:
.LBB1797:
	.loc 1 1833 0 discriminator 3
	ldr	x22, [x22]
.LBE1797:
	.loc 1 1833 0 is_stmt 0 discriminator 1
	cmp	x21, x22
	bne	.L83
	b	.L82
.LVL165:
.L94:
.LBE1795:
.LBB1798:
	.loc 1 1846 0 is_stmt 1
	adrp	x0, .LC4
	add	x0, x0, :lo12:.LC4
	bl	printk
.LVL166:
.LBB1799:
	.loc 1 1847 0
	ldr	x19, [x19,264]
.LVL167:
.LBE1799:
	.loc 1 1847 0 is_stmt 0 discriminator 1
	cmp	x21, x19
.LBB1800:
	.loc 1 1847 0
	sub	x19, x19, #440
.LVL168:
.LBE1800:
	.loc 1 1847 0 discriminator 1
	beq	.L77
.L87:
	.loc 1 1848 0 is_stmt 1
	mov	x0, x19
	mov	x1, x20
	bl	hisi_blk_dump_request
.LVL169:
.LBB1801:
	.loc 1 1847 0 discriminator 3
	ldr	x19, [x19,440]
.LVL170:
.LBE1801:
	.loc 1 1847 0 is_stmt 0 discriminator 1
	cmp	x21, x19
.LBB1802:
	.loc 1 1847 0 discriminator 3
	sub	x19, x19, #440
.LVL171:
.LBE1802:
	.loc 1 1847 0 discriminator 1
	bne	.L87
	b	.L77
.LVL172:
.L93:
.LBE1798:
.LBB1803:
	.loc 1 1839 0 is_stmt 1
	adrp	x0, .LC3
	add	x0, x0, :lo12:.LC3
	bl	printk
.LVL173:
.LBB1804:
	.loc 1 1840 0
	ldr	x22, [x19,248]
.LVL174:
.LBE1804:
	.loc 1 1840 0 is_stmt 0 discriminator 1
	cmp	x21, x22
	beq	.L81
.L86:
	.loc 1 1841 0 is_stmt 1
	mov	x0, x22
	mov	x1, x20
	bl	hisi_blk_dump_request
.LVL175:
.LBB1805:
	.loc 1 1840 0 discriminator 3
	ldr	x22, [x22]
.LBE1805:
	.loc 1 1840 0 is_stmt 0 discriminator 1
	cmp	x21, x22
	bne	.L86
	b	.L81
.LBE1803:
	.cfi_endproc
.LFE3198:
	.size	ufs_mq_dump_request, .-ufs_mq_dump_request
	.align	2
	.type	ufs_mq_tag_sysfs_show, %function
ufs_mq_tag_sysfs_show:
.LFB3118:
	.loc 1 486 0 is_stmt 1
	.cfi_startproc
.LVL176:
	stp	x29, x30, [sp, -96]!
	.cfi_def_cfa_offset 96
	.cfi_offset 29, -96
	.cfi_offset 30, -88
	add	x29, sp, 0
	.cfi_def_cfa_register 29
	stp	x19, x20, [sp,16]
	stp	x21, x22, [sp,32]
	stp	x23, x24, [sp,48]
	stp	x25, x26, [sp,64]
	.cfi_offset 19, -80
	.cfi_offset 20, -72
	.cfi_offset 21, -64
	.cfi_offset 22, -56
	.cfi_offset 23, -48
	.cfi_offset 24, -40
	.cfi_offset 25, -32
	.cfi_offset 26, -24
	.loc 1 490 0
	cbz	x1, .L97
	.loc 1 493 0
	ldr	w0, [x1,60]
.LVL177:
	mov	x21, x2
	ldr	w5, [x1,8]
	mov	x26, x3
	ldr	w4, [x1,4]
	mov	w6, 1
	ldr	w3, [x1]
.LVL178:
	adrp	x2, .LC5
.LVL179:
	mov	x19, x1
	lsl	w6, w6, w0
	mov	x1, 4096
.LVL180:
	add	x2, x2, :lo12:.LC5
	mov	x0, x21
	.loc 1 501 0
	mov	x24, x1
	.loc 1 493 0
	bl	snprintf
.LVL181:
	mov	w20, w0
.LBB1806:
.LBB1807:
	.loc 1 157 0
	add	x0, x19, 56
	ldr	w25, [x19,56]
	bl	sbitmap_weight
.LVL182:
	sub	w3, w25, w0
.LBE1807:
.LBE1806:
.LBB1809:
.LBB1810:
	add	x0, x19, 112
	ldr	w23, [x19,112]
.LBE1810:
.LBE1809:
.LBB1813:
.LBB1808:
	str	x3, [x29,80]
.LBE1808:
.LBE1813:
.LBB1814:
.LBB1811:
	bl	sbitmap_weight
.LVL183:
	sub	w4, w23, w0
.LBE1811:
.LBE1814:
.LBB1815:
.LBB1816:
	add	x0, x19, 168
	ldr	w22, [x19,168]
.LBE1816:
.LBE1815:
.LBB1818:
.LBB1812:
	str	x4, [x29,88]
.LBE1812:
.LBE1818:
	.loc 1 501 0
	uxtw	x23, w20
.LBB1819:
.LBB1817:
	.loc 1 157 0
	bl	sbitmap_weight
.LVL184:
	sub	w5, w22, w0
.LBE1817:
.LBE1819:
	.loc 1 501 0
	ldr	x4, [x29,88]
	adrp	x2, .LC6
	ldr	x3, [x29,80]
	sub	x1, x24, x23
	add	x0, x21, x23
	add	x2, x2, :lo12:.LC6
	.loc 1 506 0
	mov	w23, 0
	.loc 1 501 0
	bl	snprintf
.LVL185:
	add	w1, w0, w20
.LBB1820:
.LBB1821:
.LBB1822:
	.loc 2 247 0 discriminator 4
	ldr	w3, [x19,48]
.LBE1822:
.LBE1821:
.LBE1820:
	.loc 1 502 0 discriminator 6
	adrp	x2, .LC7
	.loc 1 501 0
	mov	x20, x1
	.loc 1 502 0 discriminator 6
	add	x0, x21, x1
	add	x2, x2, :lo12:.LC7
	sub	x1, x24, x1
	bl	snprintf
.LVL186:
	.loc 1 504 0
	add	w0, w20, w0
	str	x0, [x26]
	.loc 1 507 0
	mov	w0, w23
	ldp	x19, x20, [sp,16]
	.cfi_remember_state
	.cfi_restore 20
	.cfi_restore 19
.LVL187:
	ldp	x21, x22, [sp,32]
	.cfi_restore 22
	.cfi_restore 21
.LVL188:
	ldp	x23, x24, [sp,48]
	.cfi_restore 24
	.cfi_restore 23
	ldp	x25, x26, [sp,64]
	.cfi_restore 26
	.cfi_restore 25
.LVL189:
	ldp	x29, x30, [sp], 96
	.cfi_restore 30
	.cfi_restore 29
	.cfi_def_cfa 31, 0
	ret
.LVL190:
.L97:
	.cfi_restore_state
	.loc 1 491 0
	mov	w23, -22
	.loc 1 507 0
	mov	w0, w23
.LVL191:
	ldp	x19, x20, [sp,16]
	.cfi_restore 19
	.cfi_restore 20
	ldp	x21, x22, [sp,32]
	.cfi_restore 21
	.cfi_restore 22
	ldp	x23, x24, [sp,48]
	.cfi_restore 23
	.cfi_restore 24
	ldp	x25, x26, [sp,64]
	.cfi_restore 25
	.cfi_restore 26
	ldp	x29, x30, [sp], 96
	.cfi_restore 29
	.cfi_restore 30
	.cfi_def_cfa 31, 0
	ret
	.cfi_endproc
.LFE3118:
	.size	ufs_mq_tag_sysfs_show, .-ufs_mq_tag_sysfs_show
	.align	2
	.type	ufs_mq_tag_wakeup_all, %function
ufs_mq_tag_wakeup_all:
.LFB3117:
	.loc 1 477 0
	.cfi_startproc
.LVL192:
	stp	x29, x30, [sp, -32]!
	.cfi_def_cfa_offset 32
	.cfi_offset 29, -32
	.cfi_offset 30, -24
	add	x29, sp, 0
	.cfi_def_cfa_register 29
	str	x19, [sp,16]
	.cfi_offset 19, -16
	.loc 1 477 0
	mov	x19, x0
	.loc 1 479 0
	add	x0, x0, 56
.LVL193:
	bl	sbitmap_queue_wake_all
.LVL194:
	.loc 1 480 0
	add	x0, x19, 112
	bl	sbitmap_queue_wake_all
.LVL195:
	.loc 1 481 0
	add	x0, x19, 168
	bl	sbitmap_queue_wake_all
.LVL196:
	.loc 1 483 0
	ldr	x19, [sp,16]
	.cfi_restore 19
.LVL197:
	mov	w0, 0
	ldp	x29, x30, [sp], 32
	.cfi_restore 30
	.cfi_restore 29
	.cfi_def_cfa 31, 0
	ret
	.cfi_endproc
.LFE3117:
	.size	ufs_mq_tag_wakeup_all, .-ufs_mq_tag_wakeup_all
	.align	2
	.type	ufs_tagset_bt_for_each, %function
ufs_tagset_bt_for_each:
.LFB3103:
	.loc 1 198 0
	.cfi_startproc
.LVL198:
	stp	x29, x30, [sp, -96]!
	.cfi_def_cfa_offset 96
	.cfi_offset 29, -96
	.cfi_offset 30, -88
	add	x29, sp, 0
	.cfi_def_cfa_register 29
	stp	x21, x22, [sp,32]
	stp	x23, x24, [sp,48]
	stp	x25, x26, [sp,64]
	stp	x27, x28, [sp,80]
	stp	x19, x20, [sp,16]
	.cfi_offset 21, -64
	.cfi_offset 22, -56
	.cfi_offset 23, -48
	.cfi_offset 24, -40
	.cfi_offset 25, -32
	.cfi_offset 26, -24
	.cfi_offset 27, -16
	.cfi_offset 28, -8
	.cfi_offset 19, -80
	.cfi_offset 20, -72
	.loc 1 198 0
	mov	x26, x2
	mov	x24, x1
.LBB1828:
.LBB1829:
	.file 11 "/mnt/disk/jenkins/ci/workspace/chipset_patch_970_docker/opensource/component_code/vendor/huawei/extra/build/build_script/kirin_kernel_release/kernel/include/linux/sbitmap.h"
	.loc 11 211 0 discriminator 1
	ldr	w2, [x1,8]
.LVL199:
.LBE1829:
.LBE1828:
	.loc 1 198 0
	mov	x28, x0
	mov	x25, x3
	uxtb	w21, w4
.LVL200:
	uxtb	w22, w5
.LVL201:
.LBB1840:
.LBB1838:
	.loc 11 211 0 discriminator 1
	mov	w23, 0
.LVL202:
	cbz	w2, .L99
.LVL203:
.L116:
.LBB1830:
	.loc 11 212 0
	ubfiz	x0, x23, 6, 32
	ldr	x1, [x24,16]
	add	x27, x1, x0
	.loc 11 215 0
	ldr	x0, [x1,x0]
	cbz	x0, .L101
	ldr	x1, [x27,8]
	.loc 11 218 0
	mov	x2, 0
	.loc 11 221 0
	mov	x0, x27
	.loc 11 219 0
	ldr	w20, [x24,4]
.LVL204:
	.loc 11 221 0
	bl	find_next_bit
.LVL205:
	.loc 11 219 0
	lsl	w20, w23, w20
.LVL206:
	.loc 11 222 0
	ldr	x1, [x27,8]
	.loc 11 221 0
	mov	x19, x0
	.loc 11 222 0
	cmp	x1, x0, uxtw
	bls	.L122
.L121:
.LBB1831:
.LBB1832:
	.loc 1 164 0
	ldr	x2, [x28,184]
.LVL207:
.LBE1832:
.LBE1831:
	.loc 11 225 0
	add	w0, w20, w0
.LVL208:
.LBB1835:
.LBB1833:
	.loc 1 167 0
	cbz	w21, .L102
	.loc 1 168 0
	ldr	w3, [x2,16]
	add	w0, w0, w3
.L102:
	.loc 1 169 0
	cbz	w22, .L103
	.loc 1 170 0
	ldr	w3, [x2,20]
	add	w0, w0, w3
.L103:
	.loc 1 172 0
	ldr	x2, [x2,224]
.LVL209:
	.loc 1 174 0
	ldr	x3, [x28,120]
	.loc 1 172 0
	ldr	x2, [x2,w0,uxtw 3]
.LVL210:
	.loc 1 174 0
	ldr	x0, [x2,64]
.LVL211:
	cmp	x0, x3
	beq	.L123
.LBE1833:
.LBE1835:
	.loc 11 228 0
	add	w2, w19, 1
.LVL212:
.L124:
	.loc 11 221 0
	mov	x0, x27
	bl	find_next_bit
.LVL213:
	mov	x19, x0
	.loc 11 222 0
	ldr	x1, [x27,8]
	cmp	x1, x0, uxtw
	bhi	.L121
.L122:
	ldr	w2, [x24,8]
.LVL214:
.L101:
.LBE1830:
	.loc 11 211 0 discriminator 2
	add	w23, w23, 1
	.loc 11 211 0 is_stmt 0 discriminator 1
	cmp	w23, w2
	bcc	.L116
.LVL215:
.L99:
.LBE1838:
.LBE1840:
	.loc 1 208 0 is_stmt 1
	ldp	x19, x20, [sp,16]
	.cfi_remember_state
	.cfi_restore 20
	.cfi_restore 19
.LVL216:
	ldp	x21, x22, [sp,32]
	.cfi_restore 22
	.cfi_restore 21
.LVL217:
	ldp	x23, x24, [sp,48]
	.cfi_restore 24
	.cfi_restore 23
.LVL218:
	ldp	x25, x26, [sp,64]
	.cfi_restore 26
	.cfi_restore 25
.LVL219:
	ldp	x27, x28, [sp,80]
	.cfi_restore 28
	.cfi_restore 27
.LVL220:
	ldp	x29, x30, [sp], 96
	.cfi_restore 30
	.cfi_restore 29
	.cfi_def_cfa 31, 0
	ret
.LVL221:
.L123:
	.cfi_restore_state
.LBB1841:
.LBB1839:
.LBB1837:
.LBB1836:
.LBB1834:
	.loc 1 175 0
	mov	x1, x2
	mov	x0, x28
	mov	x2, x25
.LVL222:
	mov	w3, w21
	blr	x26
.LVL223:
	ldr	x1, [x27,8]
.LBE1834:
.LBE1836:
	.loc 11 228 0
	add	w2, w19, 1
	b	.L124
.LBE1837:
.LBE1839:
.LBE1841:
	.cfi_endproc
.LFE3103:
	.size	ufs_tagset_bt_for_each, .-ufs_tagset_bt_for_each
	.align	2
	.type	ufs_mq_tag_busy_iter, %function
ufs_mq_tag_busy_iter:
.LFB3116:
	.loc 1 452 0
	.cfi_startproc
.LVL224:
	stp	x29, x30, [sp, -64]!
	.cfi_def_cfa_offset 64
	.cfi_offset 29, -64
	.cfi_offset 30, -56
	add	x29, sp, 0
	.cfi_def_cfa_register 29
	stp	x23, x24, [sp,48]
	stp	x19, x20, [sp,16]
	stp	x21, x22, [sp,32]
	.cfi_offset 23, -16
	.cfi_offset 24, -8
	.cfi_offset 19, -48
	.cfi_offset 20, -40
	.cfi_offset 21, -32
	.cfi_offset 22, -24
	.loc 1 452 0
	mov	x24, x1
	mov	x22, x0
	.loc 1 456 0 discriminator 1
	ldr	w1, [x0,320]
.LVL225:
	.loc 1 452 0
	mov	x23, x2
	.loc 1 456 0 discriminator 1
	mov	w19, 0
.LVL226:
	cbnz	w1, .L142
	b	.L137
.LVL227:
.L133:
.LBB1842:
	.loc 1 468 0
	ldr	w0, [x21,4]
	cbnz	w0, .L144
.L128:
	.loc 1 470 0
	add	x1, x21, 56
	mov	x0, x20
	mov	x2, x24
	mov	x3, x23
	mov	w4, 0
	mov	w5, 0
	bl	ufs_tagset_bt_for_each
.LVL228:
	ldr	w1, [x22,320]
.LVL229:
.L131:
.LBE1842:
	.loc 1 456 0 discriminator 2
	add	w19, w19, 1
	.loc 1 456 0 is_stmt 0 discriminator 1
	cmp	w19, w1
	bcs	.L137
.L142:
.LBB1847:
	.loc 1 456 0 discriminator 3
	ldr	x0, [x22,312]
	ldr	x20, [x0,w19,sxtw 3]
.LBE1847:
.LBB1848:
.LBB1843:
.LBB1844:
	.loc 6 131 0 is_stmt 1
	ldr	w0, [x20,176]
.LBE1844:
.LBE1843:
	.loc 1 457 0
	ldr	x21, [x20,184]
.LBB1846:
.LBB1845:
	.loc 6 131 0 discriminator 1
	cbz	w0, .L131
	cbz	x21, .L131
.LBE1845:
.LBE1846:
	.loc 1 466 0
	ldr	w0, [x21,8]
	cbz	w0, .L133
	.loc 1 467 0
	mov	x0, x20
	add	x1, x21, 168
	mov	x2, x24
	mov	x3, x23
	mov	w4, 0
	mov	w5, 1
	bl	ufs_tagset_bt_for_each
.LVL230:
	.loc 1 468 0
	ldr	w0, [x21,4]
	cbz	w0, .L128
.L144:
	.loc 1 469 0
	mov	x0, x20
	add	x1, x21, 112
	mov	x2, x24
	mov	x3, x23
	mov	w4, 1
	mov	w5, 0
	bl	ufs_tagset_bt_for_each
.LVL231:
	b	.L128
.L137:
.LBE1848:
	.loc 1 474 0
	mov	w0, 0
	ldp	x19, x20, [sp,16]
	.cfi_restore 20
	.cfi_restore 19
.LVL232:
	ldp	x21, x22, [sp,32]
	.cfi_restore 22
	.cfi_restore 21
.LVL233:
	ldp	x23, x24, [sp,48]
	.cfi_restore 24
	.cfi_restore 23
.LVL234:
	ldp	x29, x30, [sp], 64
	.cfi_restore 30
	.cfi_restore 29
	.cfi_def_cfa 31, 0
	ret
	.cfi_endproc
.LFE3116:
	.size	ufs_mq_tag_busy_iter, .-ufs_mq_tag_busy_iter
	.align	2
	.type	ufs_tagset_bt_tags_for_each, %function
ufs_tagset_bt_tags_for_each:
.LFB3104:
	.loc 1 212 0
	.cfi_startproc
.LVL235:
	stp	x29, x30, [sp, -96]!
	.cfi_def_cfa_offset 96
	.cfi_offset 29, -96
	.cfi_offset 30, -88
	add	x29, sp, 0
	.cfi_def_cfa_register 29
	stp	x19, x20, [sp,16]
	stp	x23, x24, [sp,48]
	stp	x21, x22, [sp,32]
	stp	x25, x26, [sp,64]
	stp	x27, x28, [sp,80]
	.cfi_offset 19, -80
	.cfi_offset 20, -72
	.cfi_offset 23, -48
	.cfi_offset 24, -40
	.cfi_offset 21, -64
	.cfi_offset 22, -56
	.cfi_offset 25, -32
	.cfi_offset 26, -24
	.cfi_offset 27, -16
	.cfi_offset 28, -8
	.loc 1 212 0
	uxtb	w20, w4
.LVL236:
	uxtb	w24, w5
.LVL237:
	.loc 1 221 0
	ldr	x4, [x0,224]
	cbz	x4, .L145
.LBB1854:
.LBB1855:
	.loc 11 211 0 discriminator 1
	ldr	w21, [x1,8]
	cbz	w21, .L145
	mov	x22, x3
	mov	x23, x2
	mov	x26, x1
	mov	x28, x0
	mov	w25, 0
.LVL238:
.L152:
.LBB1856:
	.loc 11 212 0
	ubfiz	x0, x25, 6, 32
	ldr	x1, [x26,16]
	add	x27, x1, x0
	.loc 11 215 0
	ldr	x0, [x1,x0]
	cbz	x0, .L148
	.loc 11 219 0
	ldr	w21, [x26,4]
	.loc 11 218 0
	mov	x2, 0
	.loc 11 219 0
	lsl	w21, w25, w21
.LVL239:
.L151:
	.loc 11 221 0
	ldr	x1, [x27,8]
	mov	x0, x27
	bl	find_next_bit
.LVL240:
	mov	x19, x0
.LBB1857:
.LBB1858:
	.loc 1 192 0
	mov	x1, x22
.LBE1858:
.LBE1857:
	.loc 11 222 0
	ldr	x0, [x27,8]
.LBB1861:
.LBB1859:
	.loc 1 192 0
	mov	w2, w20
.LBE1859:
.LBE1861:
	.loc 11 222 0
	cmp	x0, x19, uxtw
	bls	.L168
	.loc 11 225 0
	add	w4, w21, w19
.LVL241:
.LBB1862:
.LBB1860:
	.loc 1 185 0
	cbz	w20, .L149
	.loc 1 186 0
	ldr	w0, [x28,16]
	add	w4, w4, w0
.L149:
	.loc 1 187 0
	cbz	w24, .L150
	.loc 1 188 0
	ldr	w0, [x28,20]
	add	w4, w4, w0
.L150:
	.loc 1 190 0
	ldr	x0, [x28,224]
	.loc 1 192 0
	ldr	x0, [x0,w4,uxtw 3]
	blr	x23
.LVL242:
.LBE1860:
.LBE1862:
	.loc 11 228 0
	add	w2, w19, 1
	b	.L151
.L168:
	ldr	w21, [x26,8]
.LVL243:
.L148:
.LBE1856:
	.loc 11 211 0 discriminator 2
	add	w25, w25, 1
	.loc 11 211 0 is_stmt 0 discriminator 1
	cmp	w25, w21
	bcc	.L152
.L145:
.LBE1855:
.LBE1854:
	.loc 1 223 0 is_stmt 1
	ldp	x19, x20, [sp,16]
	.cfi_restore 20
	.cfi_restore 19
.LVL244:
	ldp	x21, x22, [sp,32]
	.cfi_restore 22
	.cfi_restore 21
	ldp	x23, x24, [sp,48]
	.cfi_restore 24
	.cfi_restore 23
.LVL245:
	ldp	x25, x26, [sp,64]
	.cfi_restore 26
	.cfi_restore 25
.LVL246:
	ldp	x27, x28, [sp,80]
	.cfi_restore 28
	.cfi_restore 27
.LVL247:
	ldp	x29, x30, [sp], 96
	.cfi_restore 30
	.cfi_restore 29
	.cfi_def_cfa 31, 0
	ret
	.cfi_endproc
.LFE3104:
	.size	ufs_tagset_bt_tags_for_each, .-ufs_tagset_bt_tags_for_each
	.align	2
	.type	ufs_tagset_all_tag_busy_iter, %function
ufs_tagset_all_tag_busy_iter:
.LFB3105:
	.loc 1 226 0
	.cfi_startproc
.LVL248:
	stp	x29, x30, [sp, -48]!
	.cfi_def_cfa_offset 48
	.cfi_offset 29, -48
	.cfi_offset 30, -40
	add	x29, sp, 0
	.cfi_def_cfa_register 29
	stp	x19, x20, [sp,16]
	str	x21, [sp,32]
	.cfi_offset 19, -32
	.cfi_offset 20, -24
	.cfi_offset 21, -16
	.loc 1 226 0
	mov	x21, x1
	mov	x19, x0
	mov	x20, x2
	.loc 1 227 0
	ldr	w1, [x0,8]
.LVL249:
	cbnz	w1, .L178
.L170:
	.loc 1 229 0
	ldr	w0, [x19,4]
	cbz	w0, .L171
	.loc 1 230 0
	mov	x0, x19
	add	x1, x19, 112
	mov	x2, x21
	mov	x3, x20
	mov	w4, 1
	mov	w5, 0
	bl	ufs_tagset_bt_tags_for_each
.LVL250:
.L171:
	.loc 1 231 0
	mov	x0, x19
	add	x1, x19, 56
.LVL251:
	mov	x2, x21
	mov	x3, x20
	mov	w4, 0
	mov	w5, 0
	bl	ufs_tagset_bt_tags_for_each
.LVL252:
	.loc 1 234 0
	ldr	x21, [sp,32]
	.cfi_remember_state
	.cfi_restore 21
.LVL253:
	mov	w0, 0
	ldp	x19, x20, [sp,16]
	.cfi_restore 20
	.cfi_restore 19
.LVL254:
	ldp	x29, x30, [sp], 48
	.cfi_restore 30
	.cfi_restore 29
	.cfi_def_cfa 31, 0
	ret
.LVL255:
.L178:
	.cfi_restore_state
	.loc 1 228 0
	add	x1, x0, 168
	mov	x2, x21
	mov	x3, x20
	mov	w4, 0
	mov	w5, 1
	bl	ufs_tagset_bt_tags_for_each
.LVL256:
	b	.L170
	.cfi_endproc
.LFE3105:
	.size	ufs_tagset_all_tag_busy_iter, .-ufs_tagset_all_tag_busy_iter
	.align	2
	.type	ufs_mq_tag_put, %function
ufs_mq_tag_put:
.LFB3111:
	.loc 1 365 0
	.cfi_startproc
.LVL257:
	stp	x29, x30, [sp, -32]!
	.cfi_def_cfa_offset 32
	.cfi_offset 29, -32
	.cfi_offset 30, -24
	add	x29, sp, 0
	.cfi_def_cfa_register 29
	stp	x19, x20, [sp,16]
	.cfi_offset 19, -16
	.cfi_offset 20, -8
	.loc 1 365 0
	mov	x20, x0
	.loc 1 366 0
	ldr	x19, [x0,184]
.LVL258:
	.loc 1 368 0
	ldr	w1, [x19,20]
.LVL259:
	cmp	w1, w2
	bls	.L183
	.loc 1 373 0
	ldr	w1, [x19,16]
	.loc 1 374 0
	ldr	x3, [x3,280]
.LVL260:
	.loc 1 373 0
	cmp	w2, w1
	bcs	.L184
	.loc 1 379 0
	mov	w1, w2
	ldr	w2, [x3,64]
.LVL261:
	add	x0, x19, 56
	bl	sbitmap_queue_clear
.LVL262:
.LBB1863:
.LBB1864:
	.loc 8 114 0
	add	x2, x19, 24
#APP
// 114 "/mnt/disk/jenkins/ci/workspace/chipset_patch_970_docker/opensource/component_code/vendor/huawei/extra/build/build_script/kirin_kernel_release/kernel/arch/arm64/include/asm/atomic_ll_sc.h" 1
	// atomic_sub
	prfm	pstl1strm, [x2]
1:	ldxr	w0, [x2]
	sub	w0, w0, 1
	stxr	w1, w0, [x2]
	cbnz	w1, 1b
// 0 "" 2
.LVL263:
#NO_APP
.LBE1864:
.LBE1863:
	.loc 1 381 0
	ldr	x0, [x20,120]
.LVL264:
.LBB1865:
.LBB1866:
	.loc 8 114 0
	add	x0, x0, 1164
#APP
// 114 "/mnt/disk/jenkins/ci/workspace/chipset_patch_970_docker/opensource/component_code/vendor/huawei/extra/build/build_script/kirin_kernel_release/kernel/arch/arm64/include/asm/atomic_ll_sc.h" 1
	// atomic_sub
	prfm	pstl1strm, [x0]
1:	ldxr	w1, [x0]
	sub	w1, w1, 1
	stxr	w2, w1, [x0]
	cbnz	w2, 1b
// 0 "" 2
.LVL265:
#NO_APP
.L181:
.LBE1866:
.LBE1865:
	.loc 1 384 0
	mov	w0, 0
	ldp	x19, x20, [sp,16]
	.cfi_remember_state
	.cfi_restore 20
	.cfi_restore 19
.LVL266:
	ldp	x29, x30, [sp], 32
	.cfi_restore 30
	.cfi_restore 29
	.cfi_def_cfa 31, 0
	ret
.LVL267:
.L183:
	.cfi_restore_state
	.loc 1 369 0
	ldr	x3, [x3,280]
.LVL268:
	sub	w1, w2, w1
	add	x0, x19, 168
.LVL269:
	ldr	w2, [x3,64]
.LVL270:
	bl	sbitmap_queue_clear
.LVL271:
.LBB1867:
.LBB1868:
	.loc 8 114 0
	add	x2, x19, 32
#APP
// 114 "/mnt/disk/jenkins/ci/workspace/chipset_patch_970_docker/opensource/component_code/vendor/huawei/extra/build/build_script/kirin_kernel_release/kernel/arch/arm64/include/asm/atomic_ll_sc.h" 1
	// atomic_sub
	prfm	pstl1strm, [x2]
1:	ldxr	w0, [x2]
	sub	w0, w0, 1
	stxr	w1, w0, [x2]
	cbnz	w1, 1b
// 0 "" 2
.LVL272:
#NO_APP
.LBE1868:
.LBE1867:
	.loc 1 371 0
	ldr	x0, [x20,120]
.LVL273:
.LBB1869:
.LBB1870:
	.loc 8 114 0
	add	x0, x0, 1172
#APP
// 114 "/mnt/disk/jenkins/ci/workspace/chipset_patch_970_docker/opensource/component_code/vendor/huawei/extra/build/build_script/kirin_kernel_release/kernel/arch/arm64/include/asm/atomic_ll_sc.h" 1
	// atomic_sub
	prfm	pstl1strm, [x0]
1:	ldxr	w1, [x0]
	sub	w1, w1, 1
	stxr	w2, w1, [x0]
	cbnz	w2, 1b
// 0 "" 2
.LVL274:
#NO_APP
.LBE1870:
.LBE1869:
	.loc 1 384 0
	mov	w0, 0
	ldp	x19, x20, [sp,16]
	.cfi_remember_state
	.cfi_restore 19
	.cfi_restore 20
.LVL275:
	ldp	x29, x30, [sp], 32
	.cfi_restore 29
	.cfi_restore 30
	.cfi_def_cfa 31, 0
	ret
.LVL276:
.L184:
	.cfi_restore_state
	.loc 1 374 0
	sub	w1, w2, w1
	ldr	w2, [x3,64]
.LVL277:
	add	x0, x19, 112
.LVL278:
	bl	sbitmap_queue_clear
.LVL279:
.LBB1871:
.LBB1872:
	.loc 8 114 0
	add	x2, x19, 28
#APP
// 114 "/mnt/disk/jenkins/ci/workspace/chipset_patch_970_docker/opensource/component_code/vendor/huawei/extra/build/build_script/kirin_kernel_release/kernel/arch/arm64/include/asm/atomic_ll_sc.h" 1
	// atomic_sub
	prfm	pstl1strm, [x2]
1:	ldxr	w0, [x2]
	sub	w0, w0, 1
	stxr	w1, w0, [x2]
	cbnz	w1, 1b
// 0 "" 2
.LVL280:
#NO_APP
.LBE1872:
.LBE1871:
	.loc 1 376 0
	ldr	x0, [x20,120]
.LVL281:
.LBB1873:
.LBB1874:
	.loc 8 114 0
	add	x0, x0, 1168
#APP
// 114 "/mnt/disk/jenkins/ci/workspace/chipset_patch_970_docker/opensource/component_code/vendor/huawei/extra/build/build_script/kirin_kernel_release/kernel/arch/arm64/include/asm/atomic_ll_sc.h" 1
	// atomic_sub
	prfm	pstl1strm, [x0]
1:	ldxr	w1, [x0]
	sub	w1, w1, 1
	stxr	w2, w1, [x0]
	cbnz	w2, 1b
// 0 "" 2
.LVL282:
#NO_APP
	b	.L181
.LBE1874:
.LBE1873:
	.cfi_endproc
.LFE3111:
	.size	ufs_mq_tag_put, .-ufs_mq_tag_put
	.align	2
	.type	ufs_tagset_bt_get, %function
ufs_tagset_bt_get:
.LFB3106:
	.loc 1 237 0
	.cfi_startproc
.LVL283:
	stp	x29, x30, [sp, -128]!
	.cfi_def_cfa_offset 128
	.cfi_offset 29, -128
	.cfi_offset 30, -120
	add	x29, sp, 0
	.cfi_def_cfa_register 29
	stp	x23, x24, [sp,48]
	.cfi_offset 23, -80
	.cfi_offset 24, -72
	adrp	x23, __stack_chk_guard
	.loc 1 239 0
	add	x3, x29, 104
	.loc 1 237 0
	stp	x21, x22, [sp,32]
	.cfi_offset 21, -96
	.cfi_offset 22, -88
	mov	x22, x1
	mov	x21, x0
	.loc 1 242 0
	mov	x0, x1
.LVL284:
	.loc 1 237 0
	ldr	x1, [x23,#:lo12:__stack_chk_guard]
.LVL285:
	str	x1, [x29,120]
	.loc 1 239 0
	adrp	x1, autoremove_wake_function
	add	x1, x1, :lo12:autoremove_wake_function
	str	x3, [x29,104]
	stp	xzr, xzr, [x29,80]
	.loc 1 237 0
	stp	x25, x26, [sp,64]
	stp	x19, x20, [sp,16]
	.cfi_offset 25, -64
	.cfi_offset 26, -56
	.cfi_offset 19, -112
	.cfi_offset 20, -104
	.loc 1 237 0
	mov	x26, x2
	.loc 1 239 0
	str	x1, [x29,96]
.LBB1875:
.LBB1876:
	.loc 4 20 0
#APP
// 20 "/mnt/disk/jenkins/ci/workspace/chipset_patch_970_docker/opensource/component_code/vendor/huawei/extra/build/build_script/kirin_kernel_release/kernel/arch/arm64/include/asm/current.h" 1
	mrs x2, sp_el0
// 0 "" 2
.LVL286:
#NO_APP
.LBE1876:
.LBE1875:
	.loc 1 239 0
	str	x3, [x29,112]
	str	x2, [x29,88]
	.loc 1 242 0
	bl	__sbitmap_queue_get
.LVL287:
	.loc 1 243 0
	cmn	w0, #1
	beq	.L216
.LVL288:
.L186:
	.loc 1 297 0
	ldr	x2, [x29,120]
	ldr	x1, [x23,#:lo12:__stack_chk_guard]
	cmp	x2, x1
	bne	.L217
	ldp	x19, x20, [sp,16]
	.cfi_remember_state
	.cfi_restore 20
	.cfi_restore 19
	ldp	x21, x22, [sp,32]
	.cfi_restore 22
	.cfi_restore 21
.LVL289:
	ldp	x23, x24, [sp,48]
	.cfi_restore 24
	.cfi_restore 23
.LVL290:
	ldp	x25, x26, [sp,64]
	.cfi_restore 26
	.cfi_restore 25
.LVL291:
	ldp	x29, x30, [sp], 128
	.cfi_restore 30
	.cfi_restore 29
	.cfi_def_cfa 31, 0
	ret
.LVL292:
.L216:
	.cfi_restore_state
	.loc 1 246 0
	ldr	w1, [x21,16]
	tbnz	x1, 0, .L186
.LBB1877:
.LBB1878:
.LBB1879:
.LBB1880:
.LBB1881:
	.loc 2 247 0 discriminator 4
	ldr	w19, [x26,180]
.LBE1881:
.LBE1880:
.LBE1879:
.LBB1882:
.LBB1883:
.LBB1884:
.LBB1885:
.LBB1886:
.LBB1887:
	.loc 8 292 0
	add	x4, x26, 180
.LBE1887:
.LBE1886:
.LBE1885:
.LBE1884:
.LBB1891:
.LBB1892:
.LBB1893:
	.loc 2 247 0 discriminator 4
	ldr	w24, [x26,180]
.LBE1893:
.LBE1892:
.LBE1891:
.LBE1883:
.LBE1882:
	.loc 11 361 0 discriminator 5
	ldr	x20, [x22,40]
	sbfiz	x0, x19, 6, 32
.LBB1899:
.LBB1897:
.LBB1894:
.LBB1895:
	.loc 11 340 0
	add	w25, w24, 1
.LBE1895:
.LBE1894:
.LBE1897:
.LBE1899:
	.loc 11 361 0 discriminator 5
	add	x20, x20, x0
.LVL293:
.LBB1900:
.LBB1898:
.LBB1896:
	.loc 11 347 0
	and	x1, x25, 7
	sxtw	x0, w24
.LBB1890:
.LBB1889:
.LBB1888:
	.loc 8 292 0
#APP
// 292 "/mnt/disk/jenkins/ci/workspace/chipset_patch_970_docker/opensource/component_code/vendor/huawei/extra/build/build_script/kirin_kernel_release/kernel/arch/arm64/include/asm/atomic_ll_sc.h" 1
		prfm	pstl1strm, [x4]
1:	ldxr	w3, [x4]
	eor	w2, w3, w0
	cbnz	w2, 2f
	stlxr	w2, w1, [x4]
	cbnz	w2, 1b
	dmb ish
	mov	w3, w0
2:
// 0 "" 2
.LVL294:
#NO_APP
.LBE1888:
.LBE1889:
.LBE1890:
.LBE1896:
.LBE1898:
.LBE1900:
.LBE1878:
.LBE1877:
.LBB1901:
.LBB1902:
	.loc 6 95 0
	adrp	x25, .LC8
.LBE1902:
.LBE1901:
.LBB1914:
.LBB1915:
.LBB1916:
.LBB1917:
	.loc 6 82 0
	adrp	x24, cpu_number
	add	x24, x24, :lo12:cpu_number
.LVL295:
.LBE1917:
.LBE1916:
.LBE1915:
.LBE1914:
.LBB1940:
.LBB1911:
	.loc 6 95 0
	add	x25, x25, :lo12:.LC8
.LBE1911:
.LBE1940:
.LBB1941:
.LBB1936:
.LBB1929:
.LBB1920:
	.loc 6 82 0
	b	.L200
.LVL296:
.L197:
.LBE1920:
.LBE1929:
.LBE1936:
.LBE1941:
	.loc 1 291 0
	mov	x0, x20
	add	x1, x29, 80
	bl	finish_wait
.LVL297:
.LBB1942:
.LBB1943:
.LBB1944:
.LBB1945:
.LBB1946:
	.loc 2 247 0 discriminator 4
	ldr	w20, [x19,180]
.LBE1946:
.LBE1945:
.LBE1944:
.LBB1947:
.LBB1948:
.LBB1949:
.LBB1950:
.LBB1951:
	ldr	w0, [x19,180]
.LBE1951:
.LBE1950:
.LBE1949:
.LBB1952:
.LBB1953:
.LBB1954:
.LBB1955:
	.loc 8 292 0
	add	x4, x19, 180
.LBE1955:
.LBE1954:
.LBE1953:
.LBE1952:
.LBE1948:
.LBE1947:
	.loc 11 361 0 discriminator 5
	ldr	x1, [x22,40]
	sbfiz	x20, x20, 6, 32
.LBB1964:
.LBB1962:
.LBB1959:
.LBB1960:
	.loc 11 340 0
	add	w26, w0, 1
.LBE1960:
.LBE1959:
.LBE1962:
.LBE1964:
	.loc 11 361 0 discriminator 5
	add	x20, x1, x20
.LVL298:
.LBB1965:
.LBB1963:
.LBB1961:
	.loc 11 347 0
	sxtw	x0, w0
	and	x1, x26, 7
.LBB1958:
.LBB1957:
.LBB1956:
	.loc 8 292 0
#APP
// 292 "/mnt/disk/jenkins/ci/workspace/chipset_patch_970_docker/opensource/component_code/vendor/huawei/extra/build/build_script/kirin_kernel_release/kernel/arch/arm64/include/asm/atomic_ll_sc.h" 1
		prfm	pstl1strm, [x4]
1:	ldxr	w3, [x4]
	eor	w2, w3, w0
	cbnz	w2, 2f
	stlxr	w2, w1, [x4]
	cbnz	w2, 1b
	dmb ish
	mov	w3, w0
2:
// 0 "" 2
.LVL299:
#NO_APP
.LBE1956:
.LBE1957:
.LBE1958:
.LBE1961:
.LBE1963:
.LBE1965:
.LBE1943:
.LBE1942:
.LBB1966:
.LBB1967:
	.loc 6 53 0
	mov	x26, x19
.LVL300:
.L200:
.LBE1967:
.LBE1966:
	.loc 1 251 0
	add	x20, x20, 8
.LVL301:
	add	x1, x29, 80
	mov	w2, 2
.LVL302:
	mov	x0, x20
	bl	prepare_to_wait
.LVL303:
	.loc 1 253 0
	mov	x0, x22
	bl	__sbitmap_queue_get
.LVL304:
	.loc 1 254 0
	cmn	w0, #1
	.loc 1 253 0
	mov	w19, w0
	.loc 1 254 0
	bne	.L187
	.loc 1 263 0
	cbz	x26, .L188
	.loc 1 264 0
	mov	x0, x26
	mov	w1, 0
	bl	blk_mq_run_hw_queue
.LVL305:
.L188:
	.loc 1 270 0
	mov	x0, x22
	bl	__sbitmap_queue_get
.LVL306:
	.loc 1 271 0
	cmn	w0, #1
	.loc 1 270 0
	mov	w19, w0
	.loc 1 271 0
	bne	.L187
	.loc 1 274 0
	ldr	x0, [x21,24]
.LBB1970:
.LBB1912:
	.loc 6 89 0
	ldr	x1, [x0,304]
	ldr	x1, [x1,13024]
	cbz	x1, .L192
	.loc 6 89 0 is_stmt 0 discriminator 1
	ldr	x1, [x1,80]
	cbz	x1, .L192
	.loc 6 90 0 is_stmt 1
	blr	x1
.LVL307:
	mov	w2, w0
.LVL308:
	.loc 6 91 0
	cbz	w0, .L194
	.loc 6 92 0
	cmn	w0, #1
	bne	.L218
.L192:
	.loc 6 93 0
.LBB1903:
.LBB1904:
.LBB1905:
.LBB1906:
.LBB1907:
	.loc 4 20 0
#APP
// 20 "/mnt/disk/jenkins/ci/workspace/chipset_patch_970_docker/opensource/component_code/vendor/huawei/extra/build/build_script/kirin_kernel_release/kernel/arch/arm64/include/asm/current.h" 1
	mrs x1, sp_el0
// 0 "" 2
.LVL309:
#NO_APP
.LBE1907:
.LBE1906:
.LBE1905:
	.loc 5 68 0
	ldr	w0, [x1,16]
	sub	w0, w0, #1
	str	w0, [x1,16]
	cbnz	w0, .L194
.LBB1908:
.LBB1909:
.LBB1910:
	.loc 7 105 0
	ldr	x0, [x1]
.LBE1910:
.LBE1909:
.LBE1908:
	.loc 5 68 0 discriminator 1
	tbnz	x0, 1, .L219
.L194:
.LBE1904:
.LBE1903:
.LBE1912:
.LBE1970:
.LBB1971:
.LBB1972:
	.file 12 "/mnt/disk/jenkins/ci/workspace/chipset_patch_970_docker/opensource/component_code/vendor/huawei/extra/build/build_script/kirin_kernel_release/kernel/include/linux/sched.h"
	.loc 12 538 0
	mov	x0, 9223372036854775807
	bl	io_schedule_timeout
.LVL310:
.LBE1972:
.LBE1971:
.LBB1973:
.LBB1937:
.LBB1930:
.LBB1921:
.LBB1922:
.LBB1923:
.LBB1924:
.LBB1925:
	.loc 4 20 0
#APP
// 20 "/mnt/disk/jenkins/ci/workspace/chipset_patch_970_docker/opensource/component_code/vendor/huawei/extra/build/build_script/kirin_kernel_release/kernel/arch/arm64/include/asm/current.h" 1
	mrs x1, sp_el0
// 0 "" 2
.LVL311:
#NO_APP
.LBE1925:
.LBE1924:
.LBE1923:
	.loc 5 53 0
	ldr	w0, [x1,16]
.LBE1922:
.LBE1921:
.LBE1930:
.LBE1937:
.LBE1973:
	.loc 1 278 0
	ldr	x2, [x21]
.LBB1974:
.LBB1938:
.LBB1931:
.LBB1927:
.LBB1926:
	.loc 5 53 0
	add	w0, w0, 1
	str	w0, [x1,16]
.LBE1926:
.LBE1927:
	.loc 6 82 0
.LBB1928:
.LBB1918:
.LBB1919:
	.file 13 "/mnt/disk/jenkins/ci/workspace/chipset_patch_970_docker/opensource/component_code/vendor/huawei/extra/build/build_script/kirin_kernel_release/kernel/arch/arm64/include/asm/percpu.h"
	.loc 13 34 0
#APP
// 34 "/mnt/disk/jenkins/ci/workspace/chipset_patch_970_docker/opensource/component_code/vendor/huawei/extra/build/build_script/kirin_kernel_release/kernel/arch/arm64/include/asm/percpu.h" 1
	mrs x1, tpidr_el1
// 0 "" 2
.LVL312:
#NO_APP
.LBE1919:
.LBE1918:
.LBE1928:
.LBE1931:
.LBB1932:
.LBB1933:
	.loc 6 71 0
	ldr	w3, [x1,x24]
	adrp	x1, __per_cpu_offset
.LVL313:
	add	x1, x1, :lo12:__per_cpu_offset
	ldr	x0, [x2,296]
.LBE1933:
.LBE1932:
.LBE1938:
.LBE1974:
	.loc 1 279 0
	ldr	x2, [x21]
.LVL314:
.LBB1975:
.LBB1939:
.LBB1935:
.LBB1934:
	.loc 6 71 0
	ldr	x1, [x1,x3,lsl 3]
	add	x0, x0, x1
.LVL315:
.LBE1934:
.LBE1935:
.LBE1939:
.LBE1975:
	.loc 1 278 0
	str	x0, [x21,24]
.LBB1976:
.LBB1968:
	.loc 6 53 0
	ldr	x1, [x2,288]
.LBE1968:
.LBE1976:
	.loc 1 279 0
	ldr	w3, [x0,64]
.LBB1977:
.LBB1969:
	.loc 6 53 0
	ldr	x0, [x2,312]
	ldr	w1, [x1,w3,sxtw 2]
	ldr	x19, [x0,w1,uxtw 3]
.LBE1969:
.LBE1977:
	.loc 1 279 0
	str	x19, [x21,32]
	.loc 1 280 0
	cmp	x26, x19
	beq	.L197
	.loc 1 281 0
	ldr	x0, [x21,8]
	.loc 1 283 0
	ldr	x22, [x19,184]
.LVL316:
	.loc 1 281 0
	tbz	x0, 3, .L198
	.loc 1 282 0
	tbnz	x0, 11, .L199
	.loc 1 283 0
	add	x22, x22, 56
.LVL317:
	b	.L197
.LVL318:
.L187:
	.loc 1 295 0
	mov	x0, x20
	add	x1, x29, 80
	bl	finish_wait
.LVL319:
	.loc 1 296 0
	mov	w0, w19
	b	.L186
.LVL320:
.L219:
.LBB1978:
.LBB1913:
	.loc 6 93 0 discriminator 3
	bl	preempt_schedule
.LVL321:
	b	.L194
.LVL322:
.L218:
	.loc 6 95 0
	adrp	x1, .LANCHOR1
	mov	x0, x25
.LVL323:
	add	x1, x1, :lo12:.LANCHOR1
	bl	printk
.LVL324:
	b	.L194
.LVL325:
.L198:
.LBE1913:
.LBE1978:
	.loc 1 288 0
	add	x22, x22, 112
.LVL326:
	b	.L197
.LVL327:
.L199:
	.loc 1 285 0
	add	x22, x22, 168
.LVL328:
	b	.L197
.LVL329:
.L217:
	.loc 1 297 0
	bl	__stack_chk_fail
.LVL330:
	.cfi_endproc
.LFE3106:
	.size	ufs_tagset_bt_get, .-ufs_tagset_bt_get
	.align	2
	.type	ufs_mq_tag_get, %function
ufs_mq_tag_get:
.LFB3110:
	.loc 1 353 0
	.cfi_startproc
.LVL331:
	stp	x29, x30, [sp, -32]!
	.cfi_def_cfa_offset 32
	.cfi_offset 29, -32
	.cfi_offset 30, -24
	add	x29, sp, 0
	.cfi_def_cfa_register 29
	stp	x19, x20, [sp,16]
	.cfi_offset 19, -16
	.cfi_offset 20, -8
	.loc 1 353 0
	mov	x20, x1
	.loc 1 354 0
	mov	x1, 2056
.LVL332:
	ldr	x2, [x0,8]
	.loc 1 353 0
	mov	x19, x0
	.loc 1 354 0
	and	x1, x2, x1
.LVL333:
	.loc 1 355 0
	cmp	x1, 8
	bne	.L221
.LBB1979:
.LBB1980:
	.loc 1 302 0
	ldr	x1, [x0,32]
.LVL334:
	mov	x2, x1
	ldr	x1, [x1,184]
	add	x1, x1, 56
	bl	ufs_tagset_bt_get
.LVL335:
	.loc 1 303 0
	tbnz	w0, #31, .L230
	.loc 1 304 0
	ldr	x1, [x19,32]
	ldr	x1, [x1,184]
.LBB1981:
.LBB1982:
	.loc 8 113 0
	add	x1, x1, 24
#APP
// 113 "/mnt/disk/jenkins/ci/workspace/chipset_patch_970_docker/opensource/component_code/vendor/huawei/extra/build/build_script/kirin_kernel_release/kernel/arch/arm64/include/asm/atomic_ll_sc.h" 1
	// atomic_add
	prfm	pstl1strm, [x1]
1:	ldxr	w2, [x1]
	add	w2, w2, 1
	stxr	w3, w2, [x1]
	cbnz	w3, 1b
// 0 "" 2
.LVL336:
#NO_APP
.LBE1982:
.LBE1981:
	.loc 1 305 0
	ldr	x1, [x19,32]
	ldr	x1, [x1,120]
.LBB1983:
.LBB1984:
	.loc 8 113 0
	add	x1, x1, 1164
#APP
// 113 "/mnt/disk/jenkins/ci/workspace/chipset_patch_970_docker/opensource/component_code/vendor/huawei/extra/build/build_script/kirin_kernel_release/kernel/arch/arm64/include/asm/atomic_ll_sc.h" 1
	// atomic_add
	prfm	pstl1strm, [x1]
1:	ldxr	w2, [x1]
	add	w2, w2, 1
	stxr	w3, w2, [x1]
	cbnz	w3, 1b
// 0 "" 2
.LVL337:
#NO_APP
.L229:
.LBE1984:
.LBE1983:
.LBE1980:
.LBE1979:
	.loc 1 360 0
	str	w0, [x20]
.LVL338:
	.loc 1 362 0
	mov	w0, 0
	ldp	x19, x20, [sp,16]
	.cfi_remember_state
	.cfi_restore 20
	.cfi_restore 19
.LVL339:
	ldp	x29, x30, [sp], 32
	.cfi_restore 30
	.cfi_restore 29
	.cfi_def_cfa 31, 0
	ret
.LVL340:
.L230:
	.cfi_restore_state
.LBB1986:
.LBB1985:
	.loc 1 303 0
	mov	w0, -1
.LVL341:
.LBE1985:
.LBE1986:
	.loc 1 360 0
	str	w0, [x20]
	.loc 1 362 0
	mov	w0, 0
	ldp	x19, x20, [sp,16]
	.cfi_remember_state
	.cfi_restore 19
	.cfi_restore 20
.LVL342:
	ldp	x29, x30, [sp], 32
	.cfi_restore 29
	.cfi_restore 30
	.cfi_def_cfa 31, 0
	ret
.LVL343:
.L221:
	.cfi_restore_state
.LBB1987:
.LBB1988:
	.loc 1 335 0
	ldr	x2, [x0,32]
.LBE1988:
.LBE1987:
	.loc 1 357 0
	cmp	x1, 2056
.LBB1995:
.LBB1993:
	.loc 1 335 0
	ldr	x1, [x2,184]
.LVL344:
.LBE1993:
.LBE1995:
	.loc 1 357 0
	beq	.L232
.LBB1996:
.LBB1997:
	.loc 1 314 0
	ldr	w3, [x1,4]
	cbz	w3, .L230
	.loc 1 322 0
	add	x1, x1, 112
	bl	ufs_tagset_bt_get
.LVL345:
	.loc 1 323 0
	tbnz	w0, #31, .L230
	.loc 1 324 0
	ldr	x1, [x19,32]
	ldr	x1, [x1,184]
.LBB1998:
.LBB1999:
	.loc 8 113 0
	add	x1, x1, 28
#APP
// 113 "/mnt/disk/jenkins/ci/workspace/chipset_patch_970_docker/opensource/component_code/vendor/huawei/extra/build/build_script/kirin_kernel_release/kernel/arch/arm64/include/asm/atomic_ll_sc.h" 1
	// atomic_add
	prfm	pstl1strm, [x1]
1:	ldxr	w2, [x1]
	add	w2, w2, 1
	stxr	w3, w2, [x1]
	cbnz	w3, 1b
// 0 "" 2
.LVL346:
#NO_APP
.LBE1999:
.LBE1998:
	.loc 1 325 0
	ldr	x1, [x19,32]
	ldr	x1, [x1,120]
.LBB2000:
.LBB2001:
	.loc 8 113 0
	add	x1, x1, 1168
#APP
// 113 "/mnt/disk/jenkins/ci/workspace/chipset_patch_970_docker/opensource/component_code/vendor/huawei/extra/build/build_script/kirin_kernel_release/kernel/arch/arm64/include/asm/atomic_ll_sc.h" 1
	// atomic_add
	prfm	pstl1strm, [x1]
1:	ldxr	w2, [x1]
	add	w2, w2, 1
	stxr	w3, w2, [x1]
	cbnz	w3, 1b
// 0 "" 2
.LVL347:
#NO_APP
.LBE2001:
.LBE2000:
	.loc 1 326 0
	ldr	x1, [x19,32]
	ldr	x1, [x1,184]
	ldr	w1, [x1,16]
	add	w0, w0, w1
.LVL348:
	b	.L229
.LVL349:
.L232:
.LBE1997:
.LBE1996:
.LBB2002:
.LBB1994:
	.loc 1 335 0
	ldr	w3, [x1,8]
	cbz	w3, .L230
	.loc 1 343 0
	add	x1, x1, 168
	bl	ufs_tagset_bt_get
.LVL350:
	.loc 1 344 0
	tbnz	w0, #31, .L230
	.loc 1 345 0
	ldr	x1, [x19,32]
	ldr	x1, [x1,184]
.LBB1989:
.LBB1990:
	.loc 8 113 0
	add	x1, x1, 32
#APP
// 113 "/mnt/disk/jenkins/ci/workspace/chipset_patch_970_docker/opensource/component_code/vendor/huawei/extra/build/build_script/kirin_kernel_release/kernel/arch/arm64/include/asm/atomic_ll_sc.h" 1
	// atomic_add
	prfm	pstl1strm, [x1]
1:	ldxr	w2, [x1]
	add	w2, w2, 1
	stxr	w3, w2, [x1]
	cbnz	w3, 1b
// 0 "" 2
.LVL351:
#NO_APP
.LBE1990:
.LBE1989:
	.loc 1 346 0
	ldr	x1, [x19,32]
	ldr	x1, [x1,120]
.LBB1991:
.LBB1992:
	.loc 8 113 0
	add	x1, x1, 1172
#APP
// 113 "/mnt/disk/jenkins/ci/workspace/chipset_patch_970_docker/opensource/component_code/vendor/huawei/extra/build/build_script/kirin_kernel_release/kernel/arch/arm64/include/asm/atomic_ll_sc.h" 1
	// atomic_add
	prfm	pstl1strm, [x1]
1:	ldxr	w2, [x1]
	add	w2, w2, 1
	stxr	w3, w2, [x1]
	cbnz	w3, 1b
// 0 "" 2
.LVL352:
#NO_APP
.LBE1992:
.LBE1991:
	.loc 1 347 0
	ldr	x1, [x19,32]
	ldr	x1, [x1,184]
	ldr	w1, [x1,20]
	add	w0, w0, w1
.LVL353:
	b	.L229
.LBE1994:
.LBE2002:
	.cfi_endproc
.LFE3110:
	.size	ufs_mq_tag_get, .-ufs_mq_tag_get
	.align	2
	.type	ufs_mq_req_complete, %function
ufs_mq_req_complete:
.LFB3184:
	.loc 1 1653 0
	.cfi_startproc
.LVL354:
	stp	x29, x30, [sp, -32]!
	.cfi_def_cfa_offset 32
	.cfi_offset 29, -32
	.cfi_offset 30, -24
	uxtb	w2, w2
	add	x29, sp, 0
	.cfi_def_cfa_register 29
	stp	x19, x20, [sp,16]
	.cfi_offset 19, -16
	.cfi_offset 20, -8
	.loc 1 1653 0
	mov	x19, x0
	.loc 1 1654 0
	ldr	x20, [x1,13016]
.LVL355:
	.loc 1 1659 0 discriminator 1
	cbz	w2, .L234
	.loc 1 1659 0 is_stmt 0
	ldr	w0, [x0,84]
.LVL356:
	.loc 1 1659 0 discriminator 1
	cmp	w0, 1
	bne	.L234
	ldr	x0, [x19,88]
.LBB2003:
.LBB2004:
	.loc 1 695 0 is_stmt 1
	tbz	x0, 3, .L235
.LVL357:
	.loc 1 696 0
	tbnz	x0, 11, .L250
.LBB2005:
.LBB2006:
	.loc 8 114 0
	add	x2, x20, 12
.LVL358:
#APP
// 114 "/mnt/disk/jenkins/ci/workspace/chipset_patch_970_docker/opensource/component_code/vendor/huawei/extra/build/build_script/kirin_kernel_release/kernel/arch/arm64/include/asm/atomic_ll_sc.h" 1
	// atomic_sub
	prfm	pstl1strm, [x2]
1:	ldxr	w0, [x2]
	sub	w0, w0, 1
	stxr	w1, w0, [x2]
	cbnz	w1, 1b
// 0 "" 2
.LVL359:
#NO_APP
.L237:
.LBE2006:
.LBE2005:
	.loc 1 710 0
	bl	ktime_get
.LVL360:
	str	x0, [x20,352]
.LVL361:
.L234:
.LBE2004:
.LBE2003:
	.loc 1 1661 0
	ldr	x3, [x19,72]
.LBB2012:
	adrp	x0, cpu_number
	add	x0, x0, :lo12:cpu_number
.LVL362:
.LBB2013:
.LBB2014:
	.loc 13 34 0
#APP
// 34 "/mnt/disk/jenkins/ci/workspace/chipset_patch_970_docker/opensource/component_code/vendor/huawei/extra/build/build_script/kirin_kernel_release/kernel/arch/arm64/include/asm/percpu.h" 1
	mrs x2, tpidr_el1
// 0 "" 2
.LVL363:
#NO_APP
.LBE2014:
.LBE2013:
.LBE2012:
	.loc 1 1661 0
	ldr	w1, [x3,64]
.LVL364:
.LBB2015:
.LBE2015:
	ldr	w0, [x2,x0]
.LVL365:
	cmp	w1, w0
	beq	.L238
.LBB2016:
.LBB2017:
.LBB2018:
.LBB2019:
	.loc 7 105 0
	add	w0, w1, 63
	cmp	w1, wzr
	csel	w0, w0, w1, lt
	adrp	x2, __cpu_online_mask
.LVL366:
	asr	w0, w0, 6
	add	x2, x2, :lo12:__cpu_online_mask
	ldr	x0, [x2,w0,sxtw 3]
	lsr	x1, x0, x1
.LBE2019:
.LBE2018:
.LBE2017:
.LBE2016:
	.loc 1 1661 0 discriminator 1
	tbnz	x1, 0, .L251
.LVL367:
.L238:
.LBB2020:
.LBB2021:
.LBB2022:
.LBB2023:
	.file 14 "/mnt/disk/jenkins/ci/workspace/chipset_patch_970_docker/opensource/component_code/vendor/huawei/extra/build/build_script/kirin_kernel_release/kernel/arch/arm64/include/asm/irqflags.h"
	.loc 14 29 0
#APP
// 29 "/mnt/disk/jenkins/ci/workspace/chipset_patch_970_docker/opensource/component_code/vendor/huawei/extra/build/build_script/kirin_kernel_release/kernel/arch/arm64/include/asm/irqflags.h" 1
	mrs	x20, daif		// arch_local_irq_save
msr	daifset, #2
// 0 "" 2
.LVL368:
#NO_APP
.LBE2023:
.LBE2022:
.LBB2024:
	.loc 1 1580 0
	adrp	x0, blk_cpu_done
.LBE2024:
	.loc 1 1581 0
	add	x1, x19, 136
.LBB2027:
.LBB2025:
.LBB2026:
	.loc 13 34 0
#APP
// 34 "/mnt/disk/jenkins/ci/workspace/chipset_patch_970_docker/opensource/component_code/vendor/huawei/extra/build/build_script/kirin_kernel_release/kernel/arch/arm64/include/asm/percpu.h" 1
	mrs x3, tpidr_el1
// 0 "" 2
.LVL369:
#NO_APP
.LBE2026:
.LBE2025:
	.loc 1 1580 0
	add	x0, x0, :lo12:blk_cpu_done
.LVL370:
	add	x2, x3, x0
.LVL371:
.LBE2027:
.LBB2028:
.LBB2029:
	.loc 3 77 0
	ldr	x4, [x2,8]
.LBB2030:
.LBB2031:
	.loc 3 42 0
	str	x1, [x2,8]
	.loc 3 43 0
	str	x2, [x19,136]
	.loc 3 44 0
	str	x4, [x19,144]
.LBB2032:
.LBB2033:
.LBB2034:
	.loc 2 276 0
	str	x1, [x4]
.LBE2034:
.LBE2033:
.LBE2032:
.LBE2031:
.LBE2030:
.LBE2029:
.LBE2028:
	.loc 1 1582 0
	ldr	x0, [x3,x0]
.LVL372:
	cmp	x1, x0
	bne	.L240
	.loc 1 1583 0
	mov	w0, 4
	bl	raise_softirq_irqoff
.LVL373:
.L240:
.LBB2035:
.LBB2036:
	.loc 14 81 0
#APP
// 81 "/mnt/disk/jenkins/ci/workspace/chipset_patch_970_docker/opensource/component_code/vendor/huawei/extra/build/build_script/kirin_kernel_release/kernel/arch/arm64/include/asm/irqflags.h" 1
	msr	daif, x20		// arch_local_irq_restore
// 0 "" 2
#NO_APP
.LBE2036:
.LBE2035:
.LBE2021:
.LBE2020:
	.loc 1 1670 0
	mov	w0, 0
	ldp	x19, x20, [sp,16]
	.cfi_remember_state
	.cfi_restore 20
	.cfi_restore 19
.LVL374:
	ldp	x29, x30, [sp], 32
	.cfi_restore 30
	.cfi_restore 29
	.cfi_def_cfa 31, 0
	ret
.LVL375:
.L251:
	.cfi_restore_state
	.loc 1 1662 0
	adrp	x0, __ufs_mq_complete_request_remote
	.loc 1 1663 0
	str	x19, [x19,48]
	.loc 1 1664 0
	str	wzr, [x19,56]
	.loc 1 1662 0
	add	x0, x0, :lo12:__ufs_mq_complete_request_remote
	str	x0, [x19,40]
	.loc 1 1665 0
	add	x1, x19, 32
	ldr	w0, [x3,64]
	bl	smp_call_function_single_async
.LVL376:
	.loc 1 1670 0
	mov	w0, 0
	ldp	x19, x20, [sp,16]
	.cfi_remember_state
	.cfi_restore 19
	.cfi_restore 20
.LVL377:
	ldp	x29, x30, [sp], 32
	.cfi_restore 29
	.cfi_restore 30
	.cfi_def_cfa 31, 0
	ret
.LVL378:
.L235:
	.cfi_restore_state
.LBB2037:
.LBB2011:
.LBB2007:
.LBB2008:
	.loc 8 114 0
	add	x2, x20, 16
.LVL379:
#APP
// 114 "/mnt/disk/jenkins/ci/workspace/chipset_patch_970_docker/opensource/component_code/vendor/huawei/extra/build/build_script/kirin_kernel_release/kernel/arch/arm64/include/asm/atomic_ll_sc.h" 1
	// atomic_sub
	prfm	pstl1strm, [x2]
1:	ldxr	w0, [x2]
	sub	w0, w0, 1
	stxr	w1, w0, [x2]
	cbnz	w1, 1b
// 0 "" 2
.LVL380:
#NO_APP
.LBE2008:
.LBE2007:
	.loc 1 718 0
	bl	ktime_get
.LVL381:
	str	x0, [x20,360]
	b	.L234
.LVL382:
.L250:
.LBB2009:
.LBB2010:
	.loc 8 114 0
	add	x2, x20, 8
.LVL383:
#APP
// 114 "/mnt/disk/jenkins/ci/workspace/chipset_patch_970_docker/opensource/component_code/vendor/huawei/extra/build/build_script/kirin_kernel_release/kernel/arch/arm64/include/asm/atomic_ll_sc.h" 1
	// atomic_sub
	prfm	pstl1strm, [x2]
1:	ldxr	w0, [x2]
	sub	w0, w0, 1
	stxr	w1, w0, [x2]
	cbnz	w1, 1b
// 0 "" 2
.LVL384:
#NO_APP
	b	.L237
.LBE2010:
.LBE2009:
.LBE2011:
.LBE2037:
	.cfi_endproc
.LFE3184:
	.size	ufs_mq_req_complete, .-ufs_mq_req_complete
	.align	2
	.type	ufs_mq_req_timeout_handler, %function
ufs_mq_req_timeout_handler:
.LFB3188:
	.loc 1 1699 0
	.cfi_startproc
.LVL385:
	stp	x29, x30, [sp, -48]!
	.cfi_def_cfa_offset 48
	.cfi_offset 29, -48
	.cfi_offset 30, -40
	mov	x1, x0
.LVL386:
	add	x29, sp, 0
	.cfi_def_cfa_register 29
	stp	x19, x20, [sp,16]
	str	x21, [sp,32]
	.cfi_offset 19, -32
	.cfi_offset 20, -24
	.cfi_offset 21, -16
.LBB2038:
.LBB2039:
	.loc 7 105 0
	ldr	x0, [x0,96]
.LVL387:
.LBE2039:
.LBE2038:
	.loc 1 1701 0
	ldr	x2, [x1,64]
.LBB2041:
.LBB2040:
	.loc 7 105 0
	ubfx	x0, x0, 1, 1
.LBE2040:
.LBE2041:
	.loc 1 1701 0
	ldr	x21, [x2,280]
.LVL388:
	.loc 1 1703 0
	ldr	x20, [x2,13016]
.LVL389:
	.loc 1 1704 0
	cbz	w0, .L253
	.loc 1 1706 0
	ldr	w0, [x1,84]
	mov	x19, x1
.LVL390:
	cmp	w0, 1
	bne	.L254
.LVL391:
	ldr	x0, [x1,88]
.LBB2042:
.LBB2043:
	.loc 1 695 0
	tbz	x0, 3, .L255
.LVL392:
	.loc 1 696 0
	tbnz	x0, 11, .L275
.LBB2044:
.LBB2045:
	.loc 8 114 0
	add	x2, x20, 12
#APP
// 114 "/mnt/disk/jenkins/ci/workspace/chipset_patch_970_docker/opensource/component_code/vendor/huawei/extra/build/build_script/kirin_kernel_release/kernel/arch/arm64/include/asm/atomic_ll_sc.h" 1
	// atomic_sub
	prfm	pstl1strm, [x2]
1:	ldxr	w0, [x2]
	sub	w0, w0, 1
	stxr	w1, w0, [x2]
	cbnz	w1, 1b
// 0 "" 2
.LVL393:
#NO_APP
.L257:
.LBE2045:
.LBE2044:
	.loc 1 710 0
	bl	ktime_get
.LVL394:
	str	x0, [x20,352]
.L254:
.LBE2043:
.LBE2042:
	.loc 1 1712 0
	ldr	x2, [x21,8]
	cbz	x2, .L258
	.loc 1 1713 0
	mov	x0, x19
	mov	w1, 0
	blr	x2
.LVL395:
	.loc 1 1715 0
	cmp	w0, 2
	beq	.L258
	cmp	w0, 3
	beq	.L259
	cmp	w0, 1
	beq	.L276
	.loc 1 1729 0
	mov	w0, 0
.LVL396:
.L253:
	.loc 1 1740 0
	ldp	x19, x20, [sp,16]
	.cfi_remember_state
	.cfi_restore 20
	.cfi_restore 19
.LVL397:
	ldr	x21, [sp,32]
	.cfi_restore 21
.LVL398:
	ldp	x29, x30, [sp], 48
	.cfi_restore 30
	.cfi_restore 29
	.cfi_def_cfa 31, 0
	ret
.LVL399:
.L258:
	.cfi_restore_state
.LBB2052:
.LBB2053:
	.loc 1 681 0
	ldr	w0, [x19,84]
.LVL400:
	cmp	w0, 1
	bne	.L261
	.loc 1 683 0
	ldr	x0, [x19,88]
	tbz	x0, 3, .L262
	.loc 1 684 0
	tbnz	x0, 11, .L277
.LBB2054:
.LBB2055:
	.loc 8 113 0
	add	x2, x20, 12
#APP
// 113 "/mnt/disk/jenkins/ci/workspace/chipset_patch_970_docker/opensource/component_code/vendor/huawei/extra/build/build_script/kirin_kernel_release/kernel/arch/arm64/include/asm/atomic_ll_sc.h" 1
	// atomic_add
	prfm	pstl1strm, [x2]
1:	ldxr	w0, [x2]
	add	w0, w0, 1
	stxr	w1, w0, [x2]
	cbnz	w1, 1b
// 0 "" 2
.LVL401:
#NO_APP
.L261:
.LBE2055:
.LBE2054:
.LBE2053:
.LBE2052:
	.loc 1 1724 0
	mov	x0, x19
.LVL402:
	bl	blk_add_timer
.LVL403:
.LBB2061:
.LBB2062:
	.file 15 "/mnt/disk/jenkins/ci/workspace/chipset_patch_970_docker/opensource/component_code/vendor/huawei/extra/build/build_script/kirin_kernel_release/kernel/block/blk.h"
	.loc 15 128 0
	add	x1, x19, 96
	mov	w0, 0
	bl	clear_bit
.LVL404:
.LBE2062:
.LBE2061:
	.loc 1 1740 0
	ldr	x21, [sp,32]
	.cfi_remember_state
	.cfi_restore 21
.LVL405:
	.loc 1 1726 0
	mov	w0, 0
	.loc 1 1740 0
	ldp	x19, x20, [sp,16]
	.cfi_restore 19
	.cfi_restore 20
.LVL406:
	ldp	x29, x30, [sp], 48
	.cfi_restore 29
	.cfi_restore 30
	.cfi_def_cfa 31, 0
	ret
.LVL407:
.L276:
	.cfi_restore_state
	.loc 1 1718 0
	mov	x0, x19
.LVL408:
	bl	blk_mq_stat_add
.LVL409:
	.loc 1 1720 0
	ldr	x1, [x19,64]
.LVL410:
	mov	x0, x19
	mov	w2, 0
	bl	ufs_mq_req_complete
.LVL411:
	.loc 1 1740 0
	ldr	x21, [sp,32]
	.cfi_remember_state
	.cfi_restore 21
.LVL412:
	ldp	x19, x20, [sp,16]
	.cfi_restore 19
	.cfi_restore 20
.LVL413:
	ldp	x29, x30, [sp], 48
	.cfi_restore 29
	.cfi_restore 30
	.cfi_def_cfa 31, 0
	ret
.LVL414:
.L255:
	.cfi_restore_state
.LBB2063:
.LBB2050:
.LBB2046:
.LBB2047:
	.loc 8 114 0
	add	x2, x20, 16
#APP
// 114 "/mnt/disk/jenkins/ci/workspace/chipset_patch_970_docker/opensource/component_code/vendor/huawei/extra/build/build_script/kirin_kernel_release/kernel/arch/arm64/include/asm/atomic_ll_sc.h" 1
	// atomic_sub
	prfm	pstl1strm, [x2]
1:	ldxr	w0, [x2]
	sub	w0, w0, 1
	stxr	w1, w0, [x2]
	cbnz	w1, 1b
// 0 "" 2
.LVL415:
#NO_APP
.LBE2047:
.LBE2046:
	.loc 1 718 0
	bl	ktime_get
.LVL416:
	str	x0, [x20,360]
	b	.L254
.LVL417:
.L259:
.LBE2050:
.LBE2063:
.LBB2064:
.LBB2065:
	.loc 1 1599 0
	mov	x0, x19
.LVL418:
	bl	blk_mq_requeue_request
.LVL419:
	.loc 1 1600 0
	ldr	x0, [x19,64]
	bl	blk_mq_kick_requeue_list
.LVL420:
.LBE2065:
.LBE2064:
	.loc 1 1740 0
	ldr	x21, [sp,32]
	.cfi_remember_state
	.cfi_restore 21
.LVL421:
	.loc 1 1733 0
	mov	w0, 0
	.loc 1 1740 0
	ldp	x19, x20, [sp,16]
	.cfi_restore 19
	.cfi_restore 20
.LVL422:
	ldp	x29, x30, [sp], 48
	.cfi_restore 29
	.cfi_restore 30
	.cfi_def_cfa 31, 0
	ret
.LVL423:
.L275:
	.cfi_restore_state
.LBB2066:
.LBB2051:
.LBB2048:
.LBB2049:
	.loc 8 114 0
	add	x2, x20, 8
#APP
// 114 "/mnt/disk/jenkins/ci/workspace/chipset_patch_970_docker/opensource/component_code/vendor/huawei/extra/build/build_script/kirin_kernel_release/kernel/arch/arm64/include/asm/atomic_ll_sc.h" 1
	// atomic_sub
	prfm	pstl1strm, [x2]
1:	ldxr	w0, [x2]
	sub	w0, w0, 1
	stxr	w1, w0, [x2]
	cbnz	w1, 1b
// 0 "" 2
.LVL424:
#NO_APP
	b	.L257
.LVL425:
.L262:
.LBE2049:
.LBE2048:
.LBE2051:
.LBE2066:
.LBB2067:
.LBB2060:
.LBB2056:
.LBB2057:
	.loc 8 113 0
	add	x2, x20, 16
#APP
// 113 "/mnt/disk/jenkins/ci/workspace/chipset_patch_970_docker/opensource/component_code/vendor/huawei/extra/build/build_script/kirin_kernel_release/kernel/arch/arm64/include/asm/atomic_ll_sc.h" 1
	// atomic_add
	prfm	pstl1strm, [x2]
1:	ldxr	w0, [x2]
	add	w0, w0, 1
	stxr	w1, w0, [x2]
	cbnz	w1, 1b
// 0 "" 2
.LVL426:
#NO_APP
	b	.L261
.LVL427:
.L277:
.LBE2057:
.LBE2056:
.LBB2058:
.LBB2059:
	add	x2, x20, 8
#APP
// 113 "/mnt/disk/jenkins/ci/workspace/chipset_patch_970_docker/opensource/component_code/vendor/huawei/extra/build/build_script/kirin_kernel_release/kernel/arch/arm64/include/asm/atomic_ll_sc.h" 1
	// atomic_add
	prfm	pstl1strm, [x2]
1:	ldxr	w0, [x2]
	add	w0, w0, 1
	stxr	w1, w0, [x2]
	cbnz	w1, 1b
// 0 "" 2
.LVL428:
#NO_APP
	b	.L261
.LBE2059:
.LBE2058:
.LBE2060:
.LBE2067:
	.cfi_endproc
.LFE3188:
	.size	ufs_mq_req_timeout_handler, .-ufs_mq_req_timeout_handler
	.align	2
	.type	ufs_mq_iosched_deinit, %function
ufs_mq_iosched_deinit:
.LFB3200:
	.loc 1 1940 0
	.cfi_startproc
.LVL429:
	stp	x29, x30, [sp, -48]!
	.cfi_def_cfa_offset 48
	.cfi_offset 29, -48
	.cfi_offset 30, -40
	add	x29, sp, 0
	.cfi_def_cfa_register 29
	stp	x19, x20, [sp,16]
	str	x21, [sp,32]
	.cfi_offset 19, -32
	.cfi_offset 20, -24
	.cfi_offset 21, -16
	.loc 1 1941 0
	ldr	x20, [x0,13016]
.LVL430:
	.loc 1 1943 0
	cbz	x20, .L280
.LBB2068:
.LBB2069:
	.loc 9 302 0
	adrp	x21, .LANCHOR2
	mov	x19, x0
	add	x21, x21, :lo12:.LANCHOR2
	mov	x0, x21
.LVL431:
	bl	_raw_spin_lock
.LVL432:
.LBE2069:
.LBE2068:
.LBB2070:
.LBB2071:
.LBB2072:
	.loc 3 102 0
	ldr	x3, [x20,432]
.LBE2072:
.LBE2071:
.LBE2070:
	.loc 1 1947 0
	add	x1, x20, 432
.LBB2087:
.LBB2080:
.LBB2078:
	.loc 3 102 0
	ldr	x2, [x20,440]
.LBE2078:
.LBE2080:
.LBE2087:
.LBB2088:
.LBB2089:
	.loc 9 347 0
	mov	x0, x21
.LBE2089:
.LBE2088:
.LBB2091:
.LBB2081:
.LBB2079:
.LBB2073:
.LBB2074:
	.loc 3 89 0
	str	x2, [x3,8]
.LBB2075:
.LBB2076:
.LBB2077:
	.loc 2 276 0
	str	x3, [x2]
.LBE2077:
.LBE2076:
.LBE2075:
.LBE2074:
.LBE2073:
.LBE2079:
.LBE2081:
.LBB2082:
.LBB2083:
.LBB2084:
.LBB2085:
.LBB2086:
	str	x1, [x20,432]
.LBE2086:
.LBE2085:
.LBE2084:
	.loc 3 28 0
	str	x1, [x1,8]
.LBE2083:
.LBE2082:
.LBE2091:
.LBB2092:
.LBB2090:
	.loc 9 347 0
	bl	_raw_spin_unlock
.LVL433:
.LBE2090:
.LBE2092:
	.loc 1 1950 0
	ldr	x0, [x19,13016]
	bl	kfree
.LVL434:
	.loc 1 1951 0
	str	xzr, [x19,13016]
	.loc 1 1953 0
	mov	w0, 0
	.loc 1 1954 0
	ldp	x19, x20, [sp,16]
	.cfi_remember_state
	.cfi_restore 20
	.cfi_restore 19
.LVL435:
	ldr	x21, [sp,32]
	.cfi_restore 21
	ldp	x29, x30, [sp], 48
	.cfi_restore 30
	.cfi_restore 29
	.cfi_def_cfa 31, 0
	ret
.LVL436:
.L280:
	.cfi_restore_state
	.loc 1 1944 0
	mov	w0, 22
.LVL437:
	.loc 1 1954 0
	ldr	x21, [sp,32]
	.cfi_restore 21
	ldp	x19, x20, [sp,16]
	.cfi_restore 19
	.cfi_restore 20
.LVL438:
	ldp	x29, x30, [sp], 48
	.cfi_restore 29
	.cfi_restore 30
	.cfi_def_cfa 31, 0
	ret
	.cfi_endproc
.LFE3200:
	.size	ufs_mq_iosched_deinit, .-ufs_mq_iosched_deinit
	.align	2
	.type	ufs_mq_sync_burst_check_timer_expire, %function
ufs_mq_sync_burst_check_timer_expire:
.LFB3126:
	.loc 1 591 0
	.cfi_startproc
.LVL439:
	stp	x29, x30, [sp, -32]!
	.cfi_def_cfa_offset 32
	.cfi_offset 29, -32
	.cfi_offset 30, -24
	add	x29, sp, 0
	.cfi_def_cfa_register 29
	str	x19, [sp,16]
	.cfi_offset 19, -16
	.loc 1 591 0
	mov	x19, x0
	.loc 1 594 0
	bl	ktime_get
.LVL440:
	.loc 1 595 0
	ldr	x19, [x19,13016]
.LVL441:
.LBB2157:
.LBB2158:
.LBB2159:
	.loc 2 247 0 discriminator 4
	ldr	w1, [x19,424]
.LBE2159:
.LBE2158:
.LBE2157:
	.loc 1 597 0 discriminator 5
	sub	w1, w1, #1
	cmp	w1, 1
	bhi	.L282
	.loc 1 600 0
	adrp	x2, .LANCHOR2+24
	ldr	x3, [x19,344]
.LVL442:
.LBB2160:
.LBB2161:
.LBB2162:
	.file 16 "/mnt/disk/jenkins/ci/workspace/chipset_patch_970_docker/opensource/component_code/vendor/huawei/extra/build/build_script/kirin_kernel_release/kernel/include/linux/ktime.h"
	.loc 16 233 0
	mov	w1, 16960
	movk	w1, 0xf, lsl 16
.LBE2162:
.LBE2161:
.LBE2160:
	.loc 1 600 0
	ldr	w2, [x2,#:lo12:.LANCHOR2+24]
.LBB2168:
.LBB2164:
.LBB2163:
	.loc 16 233 0
	smaddl	x1, w2, w1, x3
.LVL443:
.LBE2163:
.LBE2164:
.LBB2165:
.LBB2166:
.LBB2167:
	.loc 16 146 0
	cmp	x0, x1
	bgt	.L284
.L282:
.LBE2167:
.LBE2166:
.LBE2165:
.LBE2168:
.LBB2169:
.LBB2170:
.LBB2171:
	.loc 16 233 0
	ldr	x1, [x19,336]
	add	x1, x1, 9998336
	add	x1, x1, 1664
.LBE2171:
.LBE2170:
.LBB2172:
.LBB2173:
.LBB2174:
	.loc 16 144 0
	cmp	x0, x1
	bge	.L303
.LBE2174:
.LBE2173:
.LBE2172:
.LBE2169:
.LBB2175:
.LBB2176:
.LBB2177:
.LBB2178:
.LBB2179:
	.loc 2 247 0 discriminator 4
	ldr	w0, [x19,424]
.LVL444:
.LBE2179:
.LBE2178:
.LBE2177:
	.loc 1 554 0 discriminator 5
	cmp	w0, 1
	beq	.L287
	cmp	w0, 3
	bne	.L288
.LBB2180:
	.loc 1 559 0 discriminator 1
	ldr	x0, [x19]
.LBB2181:
.LBB2182:
	.loc 2 247 0 discriminator 4
	ldr	w0, [x0,1168]
.LBE2182:
.LBE2181:
.LBE2180:
	.loc 1 559 0 discriminator 5
	cbnz	w0, .L288
.L301:
.LBB2183:
.LBB2184:
.LBB2185:
	.loc 2 275 0
	mov	w0, 1
	str	w0, [x19,424]
.L288:
.LBE2185:
.LBE2184:
.LBE2183:
.LBE2176:
.LBE2175:
	.loc 1 611 0
	adrp	x1, jiffies
	.loc 1 611 0 is_stmt 0 discriminator 1
	add	x0, x19, 376
	.loc 1 611 0
	ldr	x1, [x1,#:lo12:jiffies]
	.loc 1 611 0 discriminator 1
	add	x1, x1, 3
	bl	mod_timer
.LVL445:
.L281:
	.loc 1 612 0 is_stmt 1
	ldr	x19, [sp,16]
	.cfi_remember_state
	.cfi_restore 19
.LVL446:
	ldp	x29, x30, [sp], 32
	.cfi_restore 30
	.cfi_restore 29
	.cfi_def_cfa 31, 0
	ret
.LVL447:
.L303:
	.cfi_restore_state
.LBB2190:
.LBB2191:
.LBB2192:
.LBB2193:
.LBB2194:
	.loc 2 247 0 discriminator 4
	ldr	w0, [x19,424]
.LVL448:
.LBE2194:
.LBE2193:
.LBE2192:
	.loc 1 569 0 discriminator 5
	cmp	w0, 2
	beq	.L291
	cmp	w0, 3
	beq	.L292
	cmp	w0, 1
	bne	.L288
	.loc 1 571 0
	bl	ktime_get
.LVL449:
.LBB2195:
.LBB2196:
.LBB2197:
	.loc 16 233 0
	ldr	x2, [x19,352]
	mov	x1, 50048
	movk	x1, 0x1c9, lsl 16
	add	x1, x2, x1
.LBE2197:
.LBE2196:
.LBB2198:
.LBB2199:
.LBB2200:
	.loc 16 146 0
	cmp	x0, x1
	ble	.L288
.LBE2200:
.LBE2199:
.LBE2198:
.LBE2195:
.LBB2201:
.LBB2202:
.LBB2203:
	.loc 2 275 0
	str	wzr, [x19,424]
	b	.L281
.LVL450:
.L284:
.LBE2203:
.LBE2202:
.LBE2201:
.LBE2191:
.LBE2190:
.LBB2220:
.LBB2221:
.LBB2222:
	mov	w1, 3
	str	w1, [x19,424]
	b	.L282
.LVL451:
.L287:
.LBE2222:
.LBE2221:
.LBE2220:
.LBB2223:
.LBB2189:
.LBB2186:
.LBB2187:
.LBB2188:
	mov	w0, 2
	str	w0, [x19,424]
	b	.L288
.L291:
.LBE2188:
.LBE2187:
.LBE2186:
.LBE2189:
.LBE2223:
.LBB2224:
.LBB2219:
	.loc 1 577 0
	bl	ktime_get
.LVL452:
.LBB2206:
.LBB2207:
.LBB2208:
	.loc 16 233 0
	ldr	x1, [x19,336]
	add	x1, x1, 9998336
	add	x1, x1, 1664
.LBE2208:
.LBE2207:
.LBB2209:
.LBB2210:
.LBB2211:
	.loc 16 146 0
	cmp	x0, x1
	bgt	.L301
	b	.L288
.LVL453:
.L292:
.LBE2211:
.LBE2210:
.LBE2209:
.LBE2206:
	.loc 1 581 0
	bl	ktime_get
.LVL454:
.LBB2212:
.LBB2213:
.LBB2214:
	.loc 16 233 0
	ldr	x2, [x19,352]
	mov	x1, 11520
	movk	x1, 0x131, lsl 16
	add	x1, x2, x1
.LBE2214:
.LBE2213:
.LBB2215:
.LBB2216:
.LBB2217:
	.loc 16 146 0
	cmp	x0, x1
	ble	.L288
.LBE2217:
.LBE2216:
.LBE2215:
.LBE2212:
.LBB2218:
.LBB2205:
.LBB2204:
	.loc 2 275 0
	str	wzr, [x19,424]
	b	.L281
.LBE2204:
.LBE2205:
.LBE2218:
.LBE2219:
.LBE2224:
	.cfi_endproc
.LFE3126:
	.size	ufs_mq_sync_burst_check_timer_expire, .-ufs_mq_sync_burst_check_timer_expire
	.align	2
	.type	ufs_mq_iosched_init, %function
ufs_mq_iosched_init:
.LFB3199:
	.loc 1 1854 0
	.cfi_startproc
.LVL455:
	stp	x29, x30, [sp, -64]!
	.cfi_def_cfa_offset 64
	.cfi_offset 29, -64
	.cfi_offset 30, -56
.LBB2225:
.LBB2226:
	.file 17 "/mnt/disk/jenkins/ci/workspace/chipset_patch_970_docker/opensource/component_code/vendor/huawei/extra/build/build_script/kirin_kernel_release/kernel/include/linux/slab.h"
	.loc 17 495 0
	mov	w1, 192
	mov	x2, 448
.LBE2226:
.LBE2225:
	.loc 1 1854 0
	add	x29, sp, 0
	.cfi_def_cfa_register 29
	stp	x21, x22, [sp,32]
	.cfi_offset 21, -32
	.cfi_offset 22, -24
	mov	x21, x0
.LBB2230:
.LBB2227:
	.loc 17 495 0
	adrp	x0, kmalloc_caches+72
.LVL456:
	movk	w1, 0x240, lsl 16
.LBE2227:
.LBE2230:
	.loc 1 1854 0
	stp	x19, x20, [sp,16]
.LBB2231:
.LBB2228:
	.loc 17 495 0
	ldr	x0, [x0,#:lo12:kmalloc_caches+72]
.LBE2228:
.LBE2231:
	.loc 1 1854 0
	stp	x23, x24, [sp,48]
	.cfi_offset 19, -48
	.cfi_offset 20, -40
	.cfi_offset 23, -16
	.cfi_offset 24, -8
.LBB2232:
.LBB2229:
	.loc 17 495 0
	bl	kmem_cache_alloc_trace
.LVL457:
	mov	x19, x0
.LBE2229:
.LBE2232:
	.loc 1 1858 0
	cbz	x0, .L314
	.loc 1 1865 0
	add	x4, x19, 32
.LBB2233:
.LBB2234:
.LBB2235:
.LBB2236:
.LBB2237:
	.loc 2 276 0
	str	x4, [x19,32]
.LBE2237:
.LBE2236:
.LBE2235:
	.loc 3 28 0
	str	x4, [x19,40]
.LBE2234:
.LBE2233:
	.loc 1 1865 0
	adrp	x4, ufs_mq_sync_io_dispatch_work_fn
	add	x4, x4, :lo12:ufs_mq_sync_io_dispatch_work_fn
	.loc 1 1865 0 is_stmt 0 discriminator 2
	add	x0, x0, 56
	mov	w1, 2097152
	mov	x2, 0
	mov	x3, 0
	.loc 1 1865 0
	mov	x23, 68719476704
	str	x4, [x19,48]
	adrp	x22, delayed_work_timer_fn
	str	x23, [x19,24]
	add	x24, x22, :lo12:delayed_work_timer_fn
	.loc 1 1863 0 is_stmt 1
	str	x21, [x19]
	.loc 1 1865 0 discriminator 2
	bl	init_timer_key
.LVL458:
	.loc 1 1867 0
	add	x4, x19, 136
	.loc 1 1865 0
	add	x5, x19, 24
	.loc 1 1867 0
	str	x23, [x19,128]
	.loc 1 1867 0 is_stmt 0 discriminator 2
	mov	x3, 0
	.loc 1 1865 0 is_stmt 1
	str	x5, [x19,88]
	.loc 1 1867 0 discriminator 2
	add	x0, x19, 160
.LBB2238:
.LBB2239:
.LBB2240:
.LBB2241:
.LBB2242:
	.loc 2 276 0
	str	x4, [x19,136]
.LBE2242:
.LBE2241:
.LBE2240:
.LBE2239:
.LBE2238:
	.loc 1 1867 0 discriminator 2
	mov	w1, 2097152
	.loc 1 1865 0
	str	x24, [x19,80]
	.loc 1 1867 0 discriminator 2
	mov	x2, 0
	.loc 1 1866 0
	str	x21, [x19,120]
.LBB2244:
	.loc 1 1873 0 discriminator 1
	adrp	x20, .LANCHOR0
.LBE2244:
.LBB2245:
.LBB2243:
	.loc 3 28 0
	str	x4, [x4,8]
.LBE2243:
.LBE2245:
	.loc 1 1867 0
	adrp	x4, ufs_mq_async_io_dispatch_work_fn
	add	x4, x4, :lo12:ufs_mq_async_io_dispatch_work_fn
	str	x4, [x19,152]
.LBB2246:
	.loc 1 1873 0 discriminator 1
	add	x23, x20, :lo12:.LANCHOR0
.LBE2246:
	.loc 1 1867 0 discriminator 2
	bl	init_timer_key
.LVL459:
	.loc 1 1867 0 is_stmt 0
	str	x24, [x19,184]
	.loc 1 1870 0 is_stmt 1
	add	x0, x19, 232
	.loc 1 1871 0
	add	x3, x19, 248
.LBB2247:
.LBB2248:
.LBB2249:
.LBB2250:
.LBB2251:
	.loc 2 276 0
	str	x0, [x19,232]
.LBE2251:
.LBE2250:
.LBE2249:
.LBE2248:
.LBE2247:
	.loc 1 1867 0
	add	x1, x19, 128
	.loc 1 1868 0
	str	x21, [x19,224]
.LBB2253:
	.loc 1 1873 0 discriminator 1
	add	x23, x23, 16
.LBE2253:
	.loc 1 1867 0
	str	x1, [x19,192]
.LBB2254:
	.loc 1 1873 0 discriminator 1
	adrp	x1, .LC9
.LBE2254:
.LBB2255:
.LBB2252:
	.loc 3 28 0
	str	x0, [x0,8]
.LBE2252:
.LBE2255:
.LBB2256:
	.loc 1 1873 0 discriminator 1
	add	x1, x1, :lo12:.LC9
.LBE2256:
.LBB2257:
.LBB2258:
.LBB2259:
.LBB2260:
.LBB2261:
	.loc 2 276 0
	str	x3, [x19,248]
.LBE2261:
.LBE2260:
.LBE2259:
.LBE2258:
.LBE2257:
.LBB2263:
	.loc 1 1873 0 discriminator 1
	add	x0, x19, 280
.LBE2263:
.LBB2264:
.LBB2262:
	.loc 3 28 0
	str	x3, [x3,8]
.LBE2262:
.LBE2264:
.LBB2265:
	.loc 1 1873 0 discriminator 1
	mov	x2, x23
	bl	__raw_spin_lock_init
.LVL460:
.LBE2265:
.LBB2266:
	.loc 1 1874 0 discriminator 1
	adrp	x1, .LC10
	mov	x2, x23
	add	x1, x1, :lo12:.LC10
	add	x0, x19, 304
	bl	__raw_spin_lock_init
.LVL461:
.LBE2266:
.LBB2267:
.LBB2268:
.LBB2269:
	.loc 2 275 0
	str	wzr, [x19,16]
.LBE2269:
.LBE2268:
.LBE2267:
	.loc 1 1880 0
	mov	w0, 28
	str	w0, [x19,328]
	.loc 1 1881 0
	mov	w0, 12
.LBB2270:
.LBB2271:
.LBB2272:
	.loc 2 275 0
	str	wzr, [x19,8]
.LBE2272:
.LBE2271:
.LBE2270:
.LBB2273:
.LBB2274:
.LBB2275:
	str	wzr, [x19,12]
.LBE2275:
.LBE2274:
.LBE2273:
	.loc 1 1881 0
	str	w0, [x19,332]
	.loc 1 1883 0
	bl	ktime_get
.LVL462:
	str	x0, [x19,336]
	.loc 1 1884 0
	bl	ktime_get
.LVL463:
	str	x0, [x19,344]
	.loc 1 1885 0
	bl	ktime_get
.LVL464:
	str	x0, [x19,352]
	.loc 1 1886 0
	bl	ktime_get
.LVL465:
	str	x0, [x19,360]
	.loc 1 1887 0
	bl	ktime_get
.LVL466:
	.loc 1 1889 0
	mov	w1, 0
	.loc 1 1887 0
	str	x0, [x19,368]
	.loc 1 1889 0
	mov	x2, 0
	add	x0, x19, 376
	mov	x3, 0
	bl	init_timer_key
.LVL467:
	.loc 1 1890 0
	str	x21, [x19,408]
	.loc 1 1891 0
	adrp	x0, ufs_mq_sync_burst_check_timer_expire
	.loc 1 1899 0
	ldr	x1, [x21,13024]
	.loc 1 1891 0
	add	x0, x0, :lo12:ufs_mq_sync_burst_check_timer_expire
.LBB2276:
.LBB2277:
.LBB2278:
	.loc 2 275 0
	str	wzr, [x19,424]
.LBE2278:
.LBE2277:
.LBE2276:
	.loc 1 1891 0
	str	x0, [x19,400]
	.loc 1 1895 0
	str	wzr, [x19,428]
	.loc 1 1897 0
	str	x19, [x21,13016]
	.loc 1 1899 0
	cbz	x1, .L306
	.loc 1 1899 0 is_stmt 0 discriminator 1
	ldr	x0, [x1,208]
	cbz	x0, .L306
.LBB2279:
	.loc 1 1901 0 is_stmt 1
	ldr	x0, [x0]
	ldr	x1, [x0,8]
	cbz	x1, .L306
	.loc 1 1902 0
	mov	x0, x21
	blr	x1
.LVL468:
.L306:
.LBE2279:
	.loc 1 1905 0
	ldr	x0, [x20,#:lo12:.LANCHOR0]
	cbz	x0, .L307
.L310:
	.loc 1 1912 0
	add	x23, x20, :lo12:.LANCHOR0
	ldr	x0, [x23,8]
	cbz	x0, .L332
.L309:
	.loc 1 1919 0
	add	x23, x20, :lo12:.LANCHOR0
	ldr	x0, [x23,16]
	cbz	x0, .L333
.L312:
.LBB2280:
.LBB2281:
	.loc 9 302 0
	adrp	x22, .LANCHOR2
.LBE2281:
.LBE2280:
	.loc 1 1931 0
	add	x20, x20, :lo12:.LANCHOR0
.LBB2283:
.LBB2282:
	.loc 9 302 0
	add	x22, x22, :lo12:.LANCHOR2
	mov	x0, x22
	bl	_raw_spin_lock
.LVL469:
.LBE2282:
.LBE2283:
.LBB2284:
.LBB2285:
	.loc 3 77 0
	ldr	x2, [x22,40]
.LBE2285:
.LBE2284:
	.loc 1 1929 0
	add	x1, x19, 432
.LBB2295:
.LBB2293:
.LBB2286:
.LBB2287:
	.loc 3 44 0
	str	x2, [x19,440]
	.loc 3 43 0
	add	x0, x22, 32
	.loc 3 42 0
	str	x1, [x22,40]
	.loc 3 43 0
	str	x0, [x19,432]
.LBE2287:
.LBE2286:
.LBE2293:
.LBE2295:
.LBB2296:
.LBB2297:
	.loc 9 347 0
	mov	x0, x22
.LBE2297:
.LBE2296:
.LBB2299:
.LBB2294:
.LBB2292:
.LBB2291:
.LBB2288:
.LBB2289:
.LBB2290:
	.loc 2 276 0
	str	x1, [x2]
.LBE2290:
.LBE2289:
.LBE2288:
.LBE2291:
.LBE2292:
.LBE2294:
.LBE2299:
.LBB2300:
.LBB2298:
	.loc 9 347 0
	bl	_raw_spin_unlock
.LVL470:
.LBE2298:
.LBE2300:
.LBB2301:
.LBB2302:
	.loc 10 492 0
	ldr	x1, [x20,16]
	add	x2, x20, 24
	mov	x3, 500
	mov	w0, 8
	bl	queue_delayed_work_on
.LVL471:
.LBE2302:
.LBE2301:
	.loc 1 1933 0
	adrp	x1, ufs_mq_make_request
	mov	x0, x21
	add	x1, x1, :lo12:ufs_mq_make_request
	bl	blk_queue_make_request
.LVL472:
	.loc 1 1855 0
	mov	w0, 0
.LVL473:
.L305:
	.loc 1 1937 0
	ldp	x19, x20, [sp,16]
	.cfi_remember_state
	.cfi_restore 20
	.cfi_restore 19
.LVL474:
	ldp	x21, x22, [sp,32]
	.cfi_restore 22
	.cfi_restore 21
.LVL475:
	ldp	x23, x24, [sp,48]
	.cfi_restore 24
	.cfi_restore 23
	ldp	x29, x30, [sp], 64
	.cfi_restore 30
	.cfi_restore 29
	.cfi_def_cfa 31, 0
	ret
.LVL476:
.L333:
	.cfi_restore_state
	.loc 1 1920 0
	adrp	x0, .LC13
	mov	w1, 6
	add	x0, x0, :lo12:.LC13
	mov	w2, 0
	mov	x3, 0
	mov	x4, 0
	bl	__alloc_workqueue_key
.LVL477:
	str	x0, [x23,16]
	.loc 1 1921 0
	cbz	x0, .L313
.LBB2303:
.LBB2304:
.LBB2305:
	.loc 3 27 0
	add	x4, x23, 32
.LBE2305:
.LBE2304:
.LBE2303:
	.loc 1 1925 0
	add	x24, x23, 24
.LBB2311:
.LBB2309:
.LBB2308:
.LBB2306:
.LBB2307:
	.loc 2 276 0
	str	x4, [x23,32]
.LBE2307:
.LBE2306:
.LBE2308:
.LBE2309:
.LBE2311:
	.loc 1 1925 0
	mov	x5, 68719476704
.LBB2312:
.LBB2310:
	.loc 3 28 0
	str	x4, [x23,40]
.LBE2310:
.LBE2312:
	.loc 1 1925 0
	adrp	x4, ufs_mq_io_guard_work_fn
	add	x4, x4, :lo12:ufs_mq_io_guard_work_fn
	.loc 1 1925 0 is_stmt 0 discriminator 2
	add	x0, x23, 56
	mov	w1, 2097152
	mov	x2, 0
	mov	x3, 0
	.loc 1 1925 0
	str	x5, [x23,24]
	str	x4, [x23,48]
	add	x22, x22, :lo12:delayed_work_timer_fn
	.loc 1 1925 0 discriminator 2
	bl	init_timer_key
.LVL478:
	.loc 1 1925 0
	str	x24, [x24,64]
	str	x22, [x24,56]
	b	.L312
.L314:
	.loc 1 1859 0 is_stmt 1
	mov	w0, -22
.LVL479:
.LVL480:
	.loc 1 1937 0
	ldp	x19, x20, [sp,16]
	.cfi_remember_state
	.cfi_restore 19
	.cfi_restore 20
	ldp	x21, x22, [sp,32]
	.cfi_restore 21
	.cfi_restore 22
.LVL481:
	ldp	x23, x24, [sp,48]
	.cfi_restore 23
	.cfi_restore 24
	ldp	x29, x30, [sp], 64
	.cfi_restore 29
	.cfi_restore 30
	.cfi_def_cfa 31, 0
	ret
.LVL482:
.L307:
	.cfi_restore_state
	.loc 1 1906 0
	adrp	x0, .LC11
	mov	w1, 16
	add	x0, x0, :lo12:.LC11
	mov	w2, 0
	mov	x3, 0
	mov	x4, 0
	bl	__alloc_workqueue_key
.LVL483:
	adrp	x1, .LANCHOR0
	str	x0, [x1,#:lo12:.LANCHOR0]
	.loc 1 1907 0
	cbnz	x0, .L310
.L313:
	.loc 1 1908 0
	mov	w0, -12
.LVL484:
	b	.L305
.LVL485:
.L332:
	.loc 1 1913 0
	adrp	x0, .LC12
	mov	w1, 2
	add	x0, x0, :lo12:.LC12
	mov	w2, 0
	mov	x3, 0
	mov	x4, 0
	bl	__alloc_workqueue_key
.LVL486:
	str	x0, [x23,8]
	.loc 1 1914 0
	cbnz	x0, .L309
	.loc 1 1908 0
	mov	w0, -12
.LVL487:
	b	.L305
	.cfi_endproc
.LFE3199:
	.size	ufs_mq_iosched_init, .-ufs_mq_iosched_init
	.align	2
	.type	ufs_tagset_free_tags, %function
ufs_tagset_free_tags:
.LFB3114:
	.loc 1 438 0
	.cfi_startproc
.LVL488:
	stp	x29, x30, [sp, -48]!
	.cfi_def_cfa_offset 48
	.cfi_offset 29, -48
	.cfi_offset 30, -40
	add	x29, sp, 0
	.cfi_def_cfa_register 29
	stp	x19, x20, [sp,16]
	stp	x21, x22, [sp,32]
	.cfi_offset 19, -32
	.cfi_offset 20, -24
	.cfi_offset 21, -16
	.cfi_offset 22, -8
	.loc 1 438 0
	mov	x19, x0
.LBB2313:
.LBB2314:
	.loc 11 283 0
	ldr	x0, [x0,96]
.LVL489:
	bl	kfree
.LVL490:
	.loc 11 284 0
	ldr	x0, [x19,80]
	bl	free_percpu
.LVL491:
.LBB2315:
.LBB2316:
	.loc 11 152 0
	ldr	x0, [x19,72]
	bl	kfree
.LVL492:
	.loc 11 153 0
	str	xzr, [x19,72]
.LBE2316:
.LBE2315:
.LBE2314:
.LBE2313:
.LBB2317:
.LBB2318:
	.loc 11 283 0
	ldr	x0, [x19,152]
	bl	kfree
.LVL493:
	.loc 11 284 0
	ldr	x0, [x19,136]
	bl	free_percpu
.LVL494:
.LBB2319:
.LBB2320:
	.loc 11 152 0
	ldr	x0, [x19,128]
	bl	kfree
.LVL495:
	.loc 11 153 0
	str	xzr, [x19,128]
.LBE2320:
.LBE2319:
.LBE2318:
.LBE2317:
.LBB2321:
.LBB2322:
	.loc 11 283 0
	ldr	x0, [x19,208]
	bl	kfree
.LVL496:
	.loc 11 284 0
	ldr	x0, [x19,192]
	bl	free_percpu
.LVL497:
.LBB2323:
.LBB2324:
	.loc 11 152 0
	ldr	x0, [x19,184]
	bl	kfree
.LVL498:
	.loc 11 153 0
	str	xzr, [x19,184]
.LBE2324:
.LBE2323:
.LBE2322:
.LBE2321:
	.loc 1 442 0
	mov	x0, x19
	bl	kfree
.LVL499:
	.loc 1 444 0
	mov	w0, 0
	ldp	x19, x20, [sp,16]
	.cfi_restore 20
	.cfi_restore 19
.LVL500:
	ldp	x21, x22, [sp,32]
	.cfi_restore 22
	.cfi_restore 21
	ldp	x29, x30, [sp], 48
	.cfi_restore 30
	.cfi_restore 29
	.cfi_def_cfa 31, 0
	ret
	.cfi_endproc
.LFE3114:
	.size	ufs_tagset_free_tags, .-ufs_tagset_free_tags
	.align	2
	.type	ufs_tagset_init_tags, %function
ufs_tagset_init_tags:
.LFB3113:
	.loc 1 421 0
	.cfi_startproc
.LVL501:
	stp	x29, x30, [sp, -96]!
	.cfi_def_cfa_offset 96
	.cfi_offset 29, -96
	.cfi_offset 30, -88
.LBB2349:
.LBB2350:
.LBB2351:
.LBB2352:
.LBB2353:
	.loc 17 386 0
	mov	w0, 32960
.LVL502:
.LBE2353:
.LBE2352:
.LBE2351:
.LBE2350:
.LBE2349:
	.loc 1 421 0
	add	x29, sp, 0
	.cfi_def_cfa_register 29
.LBB2370:
.LBB2366:
.LBB2362:
.LBB2358:
.LBB2354:
	.loc 17 386 0
	movk	w0, 0x240, lsl 16
.LBE2354:
.LBE2358:
.LBE2362:
.LBE2366:
.LBE2370:
	.loc 1 421 0
	stp	x25, x26, [sp,64]
	.cfi_offset 25, -32
	.cfi_offset 26, -24
	mov	w25, w1
.LBB2371:
.LBB2367:
.LBB2363:
.LBB2359:
.LBB2355:
	.loc 17 386 0
	mov	w1, w0
.LVL503:
	adrp	x0, kmalloc_caches+64
.LBE2355:
.LBE2359:
.LBE2363:
.LBE2367:
.LBE2371:
	.loc 1 421 0
	str	x5, [x29,88]
	stp	x21, x22, [sp,32]
	.cfi_offset 21, -64
	.cfi_offset 22, -56
	mov	w22, w2
.LBB2372:
.LBB2368:
.LBB2364:
.LBB2360:
.LBB2356:
	.loc 17 386 0
	mov	x2, 248
.LVL504:
	ldr	x0, [x0,#:lo12:kmalloc_caches+64]
.LBE2356:
.LBE2360:
.LBE2364:
.LBE2368:
.LBE2372:
	.loc 1 421 0
	mov	w21, w3
	stp	x19, x20, [sp,16]
	stp	x23, x24, [sp,48]
	.cfi_offset 19, -80
	.cfi_offset 20, -72
	.cfi_offset 23, -48
	.cfi_offset 24, -40
	.loc 1 421 0
	mov	x26, x6
	mov	w23, w4
.LBB2373:
.LBB2369:
.LBB2365:
.LBB2361:
.LBB2357:
	.loc 17 386 0
	bl	kmem_cache_alloc_trace
.LVL505:
	mov	x19, x0
.LBE2357:
.LBE2361:
.LBE2365:
.LBE2369:
.LBE2373:
	.loc 1 424 0
	ldr	x5, [x29,88]
.LVL506:
	cbz	x0, .L342
.LBB2374:
.LBB2375:
	.loc 1 388 0
	sub	w20, w25, w22
	.loc 1 391 0
	adrp	x0, .LC15
	.loc 1 388 0
	sub	w20, w20, w21
.LVL507:
	.loc 1 389 0
	cmp	w5, 1
	.loc 1 391 0
	mov	w2, w22
	mov	w1, w20
	mov	w3, w21
	add	x0, x0, :lo12:.LC15
	.loc 1 389 0
	cset	w24, eq
.LVL508:
.LBE2375:
.LBE2374:
	.loc 1 429 0
	str	w22, [x19,4]
	.loc 1 428 0
	str	w25, [x19]
.LBB2399:
.LBB2396:
	.loc 1 393 0
	add	x22, x19, 56
.LVL509:
.LBE2396:
.LBE2399:
	.loc 1 430 0
	str	w21, [x19,8]
.LBB2400:
.LBB2397:
	.loc 1 391 0
	bl	printk
.LVL510:
	.loc 1 393 0
	mov	w4, 192
	mov	x0, x22
	movk	w4, 0x240, lsl 16
	mov	w1, w20
	mov	w2, -1
	mov	w3, w24
	mov	w5, w23
	bl	sbitmap_queue_init_node
.LVL511:
	cbnz	w0, .L338
	.loc 1 396 0
	mov	w4, 192
	add	x21, x19, 112
.LVL512:
	ldr	w1, [x19,4]
	movk	w4, 0x240, lsl 16
	mov	x0, x21
	mov	w2, -1
	mov	w3, w24
	mov	w5, w23
	bl	sbitmap_queue_init_node
.LVL513:
	cbnz	w0, .L339
	.loc 1 399 0
	mov	w4, 192
	ldr	w1, [x19,8]
	movk	w4, 0x240, lsl 16
	add	x0, x19, 168
	mov	w2, -1
	mov	w3, w24
	mov	w5, w23
	bl	sbitmap_queue_init_node
.LVL514:
	cbnz	w0, .L340
.LBB2376:
.LBB2377:
.LBB2378:
	.loc 2 275 0
	str	wzr, [x19,24]
.LBE2378:
.LBE2377:
.LBE2376:
.LBB2379:
.LBB2380:
.LBB2381:
	mov	x1, x19
.LBE2381:
.LBE2380:
.LBE2379:
	.loc 1 404 0
	ldr	w0, [x19,4]
.LBB2384:
.LBB2385:
.LBB2386:
	.loc 2 275 0
	str	wzr, [x19,28]
.LBE2386:
.LBE2385:
.LBE2384:
	.loc 1 404 0
	add	w0, w20, w0
	.loc 1 402 0
	str	wzr, [x19,12]
	.loc 1 403 0
	str	w20, [x19,16]
	.loc 1 404 0
	str	w0, [x19,20]
.LBB2387:
.LBB2383:
.LBB2382:
	.loc 2 275 0
	str	wzr, [x19,32]
.LVL515:
.L341:
.LBE2382:
.LBE2383:
.LBE2387:
.LBE2397:
.LBE2400:
	.loc 1 432 0
	str	x1, [x26]
	.loc 1 434 0
	mov	w0, 0
.LVL516:
.L337:
	.loc 1 435 0
	ldp	x19, x20, [sp,16]
	.cfi_remember_state
	.cfi_restore 20
	.cfi_restore 19
.LVL517:
	ldp	x21, x22, [sp,32]
	.cfi_restore 22
	.cfi_restore 21
.LVL518:
	ldp	x23, x24, [sp,48]
	.cfi_restore 24
	.cfi_restore 23
.LVL519:
	ldp	x25, x26, [sp,64]
	.cfi_restore 26
	.cfi_restore 25
.LVL520:
	ldp	x29, x30, [sp], 96
	.cfi_restore 30
	.cfi_restore 29
	.cfi_def_cfa 31, 0
	ret
.LVL521:
.L340:
	.cfi_restore_state
.LBB2401:
.LBB2398:
.LBB2388:
.LBB2389:
	.loc 11 283 0
	ldr	x0, [x21,40]
	bl	kfree
.LVL522:
	.loc 11 284 0
	ldr	x0, [x21,24]
	bl	free_percpu
.LVL523:
.LBB2390:
.LBB2391:
	.loc 11 152 0
	ldr	x0, [x19,128]
	bl	kfree
.LVL524:
	.loc 11 153 0
	str	xzr, [x19,128]
.L339:
.LBE2391:
.LBE2390:
.LBE2389:
.LBE2388:
.LBB2392:
.LBB2393:
	.loc 11 283 0
	ldr	x0, [x22,40]
	bl	kfree
.LVL525:
	.loc 11 284 0
	ldr	x0, [x22,24]
	bl	free_percpu
.LVL526:
.LBB2394:
.LBB2395:
	.loc 11 152 0
	ldr	x0, [x19,72]
	bl	kfree
.LVL527:
	.loc 11 153 0
	str	xzr, [x19,72]
.LVL528:
.L338:
.LBE2395:
.LBE2394:
.LBE2393:
.LBE2392:
	.loc 1 414 0
	adrp	x1, .LANCHOR1
	adrp	x0, .LC16
	add	x1, x1, :lo12:.LANCHOR1
	add	x0, x0, :lo12:.LC16
	add	x1, x1, 16
	bl	printk
.LVL529:
	.loc 1 415 0
	mov	x0, x19
	bl	kfree
.LVL530:
	.loc 1 416 0
	mov	x1, 0
	b	.L341
.LVL531:
.L342:
.LBE2398:
.LBE2401:
	.loc 1 425 0
	adrp	x0, .LC14
	add	x0, x0, :lo12:.LC14
	bl	printk
.LVL532:
	.loc 1 426 0
	mov	w0, -12
	b	.L337
	.cfi_endproc
.LFE3113:
	.size	ufs_tagset_init_tags, .-ufs_tagset_init_tags
	.align	2
	.type	ufs_mq_async_fwb_mode_inflight_limit_calc.isra.21, %function
ufs_mq_async_fwb_mode_inflight_limit_calc.isra.21:
.LFB3223:
	.loc 1 1439 0
	.cfi_startproc
	stp	x29, x30, [sp, -32]!
	.cfi_def_cfa_offset 32
	.cfi_offset 29, -32
	.cfi_offset 30, -24
	add	x29, sp, 0
	.cfi_def_cfa_register 29
	str	x19, [sp,16]
	.cfi_offset 19, -16
	.loc 1 1439 0
	mov	x19, x0
.LBB2402:
.LBB2403:
.LBB2404:
	.loc 2 247 0 discriminator 4
	ldr	w0, [x0,424]
.LBE2404:
.LBE2403:
.LBE2402:
	.loc 1 1442 0 discriminator 5
	cmp	w0, 3
	bls	.L364
.L345:
.LBB2405:
.LBB2406:
	.loc 1 1404 0
	ldr	w0, [x19,332]
	cmp	w0, 16
	beq	.L343
	.loc 1 1406 0
	mov	w0, 16
	str	w0, [x19,332]
	.loc 1 1407 0
	bl	ktime_get
.LVL533:
	str	x0, [x19,368]
.L343:
.LBE2406:
.LBE2405:
	.loc 1 1463 0
	ldr	x19, [sp,16]
	.cfi_remember_state
	.cfi_restore 19
	ldp	x29, x30, [sp], 32
	.cfi_restore 30
	.cfi_restore 29
	.cfi_def_cfa 31, 0
	ret
.L364:
	.cfi_restore_state
	.loc 1 1442 0 discriminator 5
	adrp	x1, .L346
	add	x1, x1, :lo12:.L346
	ldrb	w0, [x1,w0,uxtw]
	adr	x1, .Lrtx346
	add	x0, x1, w0, sxtb #2
	br	x0
.Lrtx346:
	.section	.rodata
	.align	0
	.align	2
.L346:
	.byte	(.L345 - .Lrtx346) / 4
	.byte	(.L347 - .Lrtx346) / 4
	.byte	(.L348 - .Lrtx346) / 4
	.byte	(.L349 - .Lrtx346) / 4
	.text
.L348:
.LBB2407:
.LBB2408:
	.loc 1 1404 0
	ldr	w0, [x19,332]
	cmp	w0, 1
	beq	.L343
	.loc 1 1406 0
	mov	w0, 1
	str	w0, [x19,332]
	.loc 1 1407 0
	bl	ktime_get
.LVL534:
	str	x0, [x19,368]
.LBE2408:
.LBE2407:
	.loc 1 1463 0
	ldr	x19, [sp,16]
	.cfi_remember_state
	.cfi_restore 19
	ldp	x29, x30, [sp], 32
	.cfi_restore 29
	.cfi_restore 30
	.cfi_def_cfa 31, 0
	ret
.L347:
	.cfi_restore_state
.LBB2409:
.LBB2410:
	.loc 1 1404 0
	ldr	w0, [x19,332]
	cmp	w0, 3
	beq	.L343
	.loc 1 1406 0
	mov	w0, 3
	str	w0, [x19,332]
	.loc 1 1407 0
	bl	ktime_get
.LVL535:
	str	x0, [x19,368]
.LBE2410:
.LBE2409:
	.loc 1 1463 0
	ldr	x19, [sp,16]
	.cfi_remember_state
	.cfi_restore 19
	ldp	x29, x30, [sp], 32
	.cfi_restore 29
	.cfi_restore 30
	.cfi_def_cfa 31, 0
	ret
.L349:
	.cfi_restore_state
.LBB2411:
.LBB2412:
	.loc 1 1404 0
	ldr	w0, [x19,332]
	cmp	w0, 12
	beq	.L343
	.loc 1 1406 0
	mov	w0, 12
	str	w0, [x19,332]
	.loc 1 1407 0
	bl	ktime_get
.LVL536:
	str	x0, [x19,368]
.LBE2412:
.LBE2411:
	.loc 1 1463 0
	ldr	x19, [sp,16]
	.cfi_restore 19
	ldp	x29, x30, [sp], 32
	.cfi_restore 29
	.cfi_restore 30
	.cfi_def_cfa 31, 0
	ret
	.cfi_endproc
.LFE3223:
	.size	ufs_mq_async_fwb_mode_inflight_limit_calc.isra.21, .-ufs_mq_async_fwb_mode_inflight_limit_calc.isra.21
	.align	2
	.type	__ufs_mq_complete_request_remote, %function
__ufs_mq_complete_request_remote:
.LFB3178:
	.loc 1 1588 0
	.cfi_startproc
.LVL537:
	stp	x29, x30, [sp, -32]!
	.cfi_def_cfa_offset 32
	.cfi_offset 29, -32
	.cfi_offset 30, -24
	.loc 1 1590 0
	mov	x1, 2056
	.loc 1 1588 0
	add	x29, sp, 0
	.cfi_def_cfa_register 29
	stp	x19, x20, [sp,16]
	.cfi_offset 19, -16
	.cfi_offset 20, -8
	.loc 1 1588 0
	mov	x19, x0
	.loc 1 1590 0
	ldr	x2, [x0,88]
	tst	x2, x1
	beq	.L366
	.loc 1 1591 0
	mov	w1, 8
	bl	hisi_blk_latency_req_check
.LVL538:
	.loc 1 1592 0
	ldr	x1, [x19,64]
	mov	x0, x19
	ldr	x1, [x1,248]
	blr	x1
.LVL539:
	.loc 1 1595 0
	ldp	x19, x20, [sp,16]
	.cfi_remember_state
	.cfi_restore 20
	.cfi_restore 19
.LVL540:
	ldp	x29, x30, [sp], 32
	.cfi_restore 30
	.cfi_restore 29
	.cfi_def_cfa 31, 0
	ret
.LVL541:
.L366:
	.cfi_restore_state
.LBB2436:
.LBB2437:
.LBB2438:
.LBB2439:
.LBB2440:
.LBB2441:
	.loc 14 29 0
#APP
// 29 "/mnt/disk/jenkins/ci/workspace/chipset_patch_970_docker/opensource/component_code/vendor/huawei/extra/build/build_script/kirin_kernel_release/kernel/arch/arm64/include/asm/irqflags.h" 1
	mrs	x20, daif		// arch_local_irq_save
msr	daifset, #2
// 0 "" 2
.LVL542:
#NO_APP
.LBE2441:
.LBE2440:
	.loc 1 1581 0
	add	x1, x0, 136
.LBB2442:
	.loc 1 1580 0
	adrp	x0, blk_cpu_done
.LVL543:
.LBB2443:
.LBB2444:
	.loc 13 34 0
#APP
// 34 "/mnt/disk/jenkins/ci/workspace/chipset_patch_970_docker/opensource/component_code/vendor/huawei/extra/build/build_script/kirin_kernel_release/kernel/arch/arm64/include/asm/percpu.h" 1
	mrs x3, tpidr_el1
// 0 "" 2
.LVL544:
#NO_APP
.LBE2444:
.LBE2443:
	.loc 1 1580 0
	add	x0, x0, :lo12:blk_cpu_done
.LVL545:
	add	x2, x3, x0
.LBE2442:
.LBB2445:
.LBB2446:
	.loc 3 77 0
	ldr	x4, [x2,8]
.LBB2447:
.LBB2448:
	.loc 3 42 0
	str	x1, [x2,8]
	.loc 3 43 0
	str	x2, [x19,136]
	.loc 3 44 0
	str	x4, [x19,144]
.LBB2449:
.LBB2450:
.LBB2451:
	.loc 2 276 0
	str	x1, [x4]
.LBE2451:
.LBE2450:
.LBE2449:
.LBE2448:
.LBE2447:
.LBE2446:
.LBE2445:
	.loc 1 1582 0
	ldr	x0, [x3,x0]
.LVL546:
	cmp	x1, x0
	bne	.L368
	.loc 1 1583 0
	mov	w0, 4
	bl	raise_softirq_irqoff
.LVL547:
.L368:
.LBB2452:
.LBB2453:
	.loc 14 81 0
#APP
// 81 "/mnt/disk/jenkins/ci/workspace/chipset_patch_970_docker/opensource/component_code/vendor/huawei/extra/build/build_script/kirin_kernel_release/kernel/arch/arm64/include/asm/irqflags.h" 1
	msr	daif, x20		// arch_local_irq_restore
// 0 "" 2
#NO_APP
.LBE2453:
.LBE2452:
.LBE2439:
.LBE2438:
.LBE2437:
.LBE2436:
	.loc 1 1595 0
	ldp	x19, x20, [sp,16]
	.cfi_restore 19
	.cfi_restore 20
.LVL548:
	ldp	x29, x30, [sp], 32
	.cfi_restore 29
	.cfi_restore 30
	.cfi_def_cfa 31, 0
	ret
	.cfi_endproc
.LFE3178:
	.size	__ufs_mq_complete_request_remote, .-__ufs_mq_complete_request_remote
	.align	2
	.type	ufs_mq_insert_sync_list.isra.23, %function
ufs_mq_insert_sync_list.isra.23:
.LFB3225:
	.loc 1 770 0
	.cfi_startproc
.LVL549:
	stp	x29, x30, [sp, -48]!
	.cfi_def_cfa_offset 48
	.cfi_offset 29, -48
	.cfi_offset 30, -40
	add	x29, sp, 0
	.cfi_def_cfa_register 29
	stp	x19, x20, [sp,16]
	.cfi_offset 19, -32
	.cfi_offset 20, -24
	mov	x19, x1
	.loc 1 774 0
	mov	w1, 4
	.loc 1 770 0
	mov	x20, x0
	str	x21, [sp,32]
	.cfi_offset 21, -16
	.loc 1 774 0
	bl	hisi_blk_latency_req_check
.LVL550:
.LBB2465:
.LBB2466:
	.loc 9 291 0
	add	x21, x19, 280
.LBE2466:
.LBE2465:
	.loc 1 775 0 discriminator 1
	mov	x0, x21
	bl	_raw_spin_lock_irqsave
.LVL551:
	mov	x1, x0
.LVL552:
	.loc 1 776 0
	ldr	x2, [x20,88]
	.loc 1 776 0 is_stmt 0 discriminator 1
	add	x3, x19, 232
	add	x19, x19, 248
.LBB2467:
.LBB2468:
	.loc 9 362 0 is_stmt 1
	mov	x0, x21
.LBE2468:
.LBE2467:
	.loc 1 776 0
	and	x2, x2, 2048
	.loc 1 776 0 is_stmt 0 discriminator 1
	cmp	x2, xzr
	csel	x19, x19, x3, eq
.LBB2470:
.LBB2471:
	.loc 3 77 0 is_stmt 1
	ldr	x2, [x19,8]
.LBB2472:
.LBB2473:
	.loc 3 42 0
	str	x20, [x19,8]
	.loc 3 44 0
	str	x2, [x20,8]
	.loc 3 43 0
	str	x19, [x20]
.LBB2474:
.LBB2475:
.LBB2476:
	.loc 2 276 0
	str	x20, [x2]
.LBE2476:
.LBE2475:
.LBE2474:
.LBE2473:
.LBE2472:
.LBE2471:
.LBE2470:
.LBB2477:
.LBB2469:
	.loc 9 362 0
	bl	_raw_spin_unlock_irqrestore
.LVL553:
.LBE2469:
.LBE2477:
	.loc 1 778 0
	ldr	x21, [sp,32]
	.cfi_restore 21
	ldp	x19, x20, [sp,16]
	.cfi_restore 20
	.cfi_restore 19
.LVL554:
	ldp	x29, x30, [sp], 48
	.cfi_restore 30
	.cfi_restore 29
	.cfi_def_cfa 31, 0
	ret
	.cfi_endproc
.LFE3225:
	.size	ufs_mq_insert_sync_list.isra.23, .-ufs_mq_insert_sync_list.isra.23
	.align	2
	.type	ufs_mq_sync_dispatch, %function
ufs_mq_sync_dispatch:
.LFB3146:
	.loc 1 1055 0
	.cfi_startproc
.LVL555:
	stp	x29, x30, [sp, -112]!
	.cfi_def_cfa_offset 112
	.cfi_offset 29, -112
	.cfi_offset 30, -104
	add	x29, sp, 0
	.cfi_def_cfa_register 29
	stp	x21, x22, [sp,32]
	stp	x25, x26, [sp,64]
	stp	x19, x20, [sp,16]
	stp	x23, x24, [sp,48]
	.cfi_offset 21, -80
	.cfi_offset 22, -72
	.cfi_offset 25, -48
	.cfi_offset 26, -40
	.cfi_offset 19, -96
	.cfi_offset 20, -88
	.cfi_offset 23, -64
	.cfi_offset 24, -56
	.loc 1 1055 0
	adrp	x25, __stack_chk_guard
	mov	x20, x0
	.loc 1 1061 0
	ldr	x24, [x0,13016]
.LVL556:
	.loc 1 1093 0
	mov	w26, -5
	.loc 1 1063 0
	str	xzr, [x29,88]
	.loc 1 1055 0
	ldr	x0, [x25,#:lo12:__stack_chk_guard]
.LVL557:
	add	x23, x24, 280
	str	x0, [x29,104]
	add	x21, x24, 232
	.loc 1 1071 0
	add	x22, x24, 248
.LVL558:
.L378:
	.loc 1 1068 0 discriminator 1
	mov	x0, x23
.LVL559:
	bl	_raw_spin_lock_irqsave
.LVL560:
.LBB2478:
.LBB2479:
	.loc 3 207 0
	ldr	x19, [x21]
.LBE2479:
.LBE2478:
	.loc 1 1068 0 discriminator 1
	mov	x1, x0
.LVL561:
.LBB2482:
.LBB2480:
	.loc 3 208 0
	cmp	x19, x21
	beq	.L388
.L373:
.LBE2480:
.LBE2482:
	.loc 1 1077 0
	cbz	x19, .L375
.L390:
.LBB2483:
.LBB2484:
.LBB2485:
	.loc 3 102 0
	ldr	x3, [x19]
.LBE2485:
.LBE2484:
.LBE2483:
.LBB2498:
.LBB2499:
	.loc 9 362 0
	mov	x0, x23
.LBE2499:
.LBE2498:
.LBB2501:
.LBB2492:
.LBB2491:
	.loc 3 102 0
	ldr	x2, [x19,8]
.LBB2486:
.LBB2487:
	.loc 3 89 0
	str	x2, [x3,8]
.LBB2488:
.LBB2489:
.LBB2490:
	.loc 2 276 0
	str	x3, [x2]
.LBE2490:
.LBE2489:
.LBE2488:
.LBE2487:
.LBE2486:
.LBE2491:
.LBE2492:
.LBB2493:
.LBB2494:
.LBB2495:
.LBB2496:
.LBB2497:
	str	x19, [x19]
.LBE2497:
.LBE2496:
.LBE2495:
	.loc 3 28 0
	str	x19, [x19,8]
.LBE2494:
.LBE2493:
.LBE2501:
.LBB2502:
.LBB2500:
	.loc 9 362 0
	bl	_raw_spin_unlock_irqrestore
.LVL562:
.LBE2500:
.LBE2502:
	.loc 1 1087 0
	ldr	x3, [x19,72]
	.loc 1 1089 0
	mov	x0, x19
.LBB2503:
.LBB2504:
	.loc 6 53 0
	ldr	x5, [x20,288]
.LBE2504:
.LBE2503:
	.loc 1 1089 0
	mov	x2, x24
.LBB2507:
.LBB2505:
	.loc 6 53 0
	ldr	x1, [x20,312]
.LBE2505:
.LBE2507:
	.loc 1 1089 0
	mov	x4, x20
	.loc 1 1087 0
	ldr	w6, [x3,64]
	.loc 1 1089 0
	add	x3, x29, 80
.LBB2508:
.LBB2506:
	.loc 6 53 0
	ldr	w5, [x5,w6,sxtw 2]
	ldr	x1, [x1,w5,uxtw 3]
.LBE2506:
.LBE2508:
	.loc 1 1088 0
	str	x19, [x29,80]
	.loc 1 1089 0
	bl	ufs_mq_queue_rq
.LVL563:
	.loc 1 1090 0
	cbz	w0, .L378
	.loc 1 1092 0
	cmp	w0, 2
	beq	.L389
	.loc 1 1097 0
	mov	x0, x19
.LVL564:
	bl	__blk_mq_requeue_request
.LVL565:
	.loc 1 1098 0
	ldr	x1, [x20,13016]
	mov	x0, x19
	bl	ufs_mq_insert_sync_list.isra.23
.LVL566:
	.loc 1 1099 0
	bl	ktime_get
.LVL567:
.LBB2509:
.LBB2510:
.LBB2511:
	.loc 16 233 0
	ldr	x2, [x24,352]
	mov	x1, 37888
	movk	x1, 0x7735, lsl 16
	add	x1, x2, x1
.LBE2511:
.LBE2510:
.LBB2512:
.LBB2513:
.LBB2514:
	.loc 16 146 0
	cmp	x1, x0
	bge	.L383
.LBE2514:
.LBE2513:
.LBE2512:
.LBE2509:
	.loc 1 1099 0 discriminator 4
	bl	ktime_get
.LVL568:
.LBB2515:
.LBB2516:
.LBB2517:
	.loc 16 233 0
	ldr	x2, [x24,360]
	mov	x1, 37888
	movk	x1, 0x7735, lsl 16
	add	x1, x2, x1
.LBE2517:
.LBE2516:
.LBB2518:
.LBB2519:
.LBB2520:
	.loc 16 146 0
	cmp	x1, x0
	bge	.L383
.LBE2520:
.LBE2519:
.LBE2518:
.LBE2515:
.LBB2521:
.LBB2522:
.LBB2523:
.LBB2524:
	.loc 10 492 0
	adrp	x1, .LANCHOR0
.LBE2524:
.LBE2523:
	.loc 1 762 0
	ldr	x2, [x20,13016]
.LBB2526:
.LBB2525:
	.loc 10 492 0
	mov	x3, 1
	mov	w0, 8
	add	x2, x2, 24
	ldr	x1, [x1,#:lo12:.LANCHOR0]
	bl	queue_delayed_work_on
.LVL569:
	b	.L372
.LVL570:
.L388:
.LBE2525:
.LBE2526:
.LBE2522:
.LBE2521:
.LBB2527:
.LBB2481:
	.loc 3 208 0 discriminator 1
	ldr	x0, [x21,8]
	cmp	x0, x21
	beq	.L374
	mov	x19, x21
.LBE2481:
.LBE2527:
	.loc 1 1077 0
	cbnz	x19, .L390
.L375:
.LBB2528:
.LBB2529:
	.loc 9 362 0
	mov	x0, x23
	bl	_raw_spin_unlock_irqrestore
.LVL571:
.L372:
.LBE2529:
.LBE2528:
	.loc 1 1107 0
	ldr	x1, [x29,104]
	ldr	x0, [x25,#:lo12:__stack_chk_guard]
	cmp	x1, x0
	bne	.L391
	ldp	x19, x20, [sp,16]
	.cfi_remember_state
	.cfi_restore 20
	.cfi_restore 19
.LVL572:
	ldp	x21, x22, [sp,32]
	.cfi_restore 22
	.cfi_restore 21
	ldp	x23, x24, [sp,48]
	.cfi_restore 24
	.cfi_restore 23
.LVL573:
	ldp	x25, x26, [sp,64]
	.cfi_restore 26
	.cfi_restore 25
	ldp	x29, x30, [sp], 112
	.cfi_restore 30
	.cfi_restore 29
	.cfi_def_cfa 31, 0
	ret
.LVL574:
.L374:
	.cfi_restore_state
.LBB2530:
.LBB2531:
	.loc 3 207 0
	ldr	x19, [x22]
	.loc 3 208 0
	cmp	x22, x19
	bne	.L373
	.loc 3 208 0 is_stmt 0 discriminator 1
	ldr	x0, [x22,8]
	cmp	x22, x0
	bne	.L373
	b	.L375
.LVL575:
.L383:
.LBE2531:
.LBE2530:
.LBB2532:
.LBB2533:
.LBB2534:
.LBB2535:
	.loc 10 492 0 is_stmt 1
	adrp	x1, .LANCHOR0
.LBE2535:
.LBE2534:
	.loc 1 762 0
	ldr	x2, [x20,13016]
.LBB2537:
.LBB2536:
	.loc 10 492 0
	mov	x3, 0
	mov	w0, 8
	add	x2, x2, 24
	ldr	x1, [x1,#:lo12:.LANCHOR0]
	bl	queue_delayed_work_on
.LVL576:
	b	.L372
.LVL577:
.L389:
.LBE2536:
.LBE2537:
.LBE2533:
.LBE2532:
	.loc 1 1093 0
	str	w26, [x19,564]
	.loc 1 1094 0
	mov	x0, x19
.LVL578:
	mov	w1, -5
	bl	blk_mq_end_request
.LVL579:
	.loc 1 1095 0
	b	.L378
.L391:
	.loc 1 1107 0
	bl	__stack_chk_fail
.LVL580:
	.cfi_endproc
.LFE3146:
	.size	ufs_mq_sync_dispatch, .-ufs_mq_sync_dispatch
	.align	2
	.type	ufs_mq_sync_io_dispatch_work_fn, %function
ufs_mq_sync_io_dispatch_work_fn:
.LFB3147:
	.loc 1 1110 0
	.cfi_startproc
.LVL581:
	stp	x29, x30, [sp, -16]!
	.cfi_def_cfa_offset 16
	.cfi_offset 29, -16
	.cfi_offset 30, -8
	add	x29, sp, 0
	.cfi_def_cfa_register 29
	.loc 1 1112 0
	ldr	x0, [x0,96]
.LVL582:
	bl	ufs_mq_sync_dispatch
.LVL583:
	.loc 1 1113 0
	ldp	x29, x30, [sp], 16
	.cfi_restore 30
	.cfi_restore 29
	.cfi_def_cfa 31, 0
	ret
	.cfi_endproc
.LFE3147:
	.size	ufs_mq_sync_io_dispatch_work_fn, .-ufs_mq_sync_io_dispatch_work_fn
	.align	2
	.type	ufs_mq_async_io_dispatch_work_fn, %function
ufs_mq_async_io_dispatch_work_fn:
.LFB3176:
	.loc 1 1569 0
	.cfi_startproc
.LVL584:
	stp	x29, x30, [sp, -144]!
	.cfi_def_cfa_offset 144
	.cfi_offset 29, -144
	.cfi_offset 30, -136
	add	x29, sp, 0
	.cfi_def_cfa_register 29
	stp	x19, x20, [sp,16]
	stp	x23, x24, [sp,48]
	stp	x25, x26, [sp,64]
	stp	x27, x28, [sp,80]
	stp	x21, x22, [sp,32]
	.cfi_offset 19, -128
	.cfi_offset 20, -120
	.cfi_offset 23, -96
	.cfi_offset 24, -88
	.cfi_offset 25, -80
	.cfi_offset 26, -72
	.cfi_offset 27, -64
	.cfi_offset 28, -56
	.cfi_offset 21, -112
	.cfi_offset 22, -104
.LBB2615:
.LBB2616:
.LBB2617:
.LBB2618:
.LBB2619:
.LBB2620:
.LBB2621:
	.loc 1 1475 0
	adrp	x24, vm_dirty_ratio
	adrp	x26, vm_zone_stat
.LBE2621:
.LBE2620:
.LBE2619:
.LBE2618:
.LBE2617:
.LBE2616:
.LBE2615:
	.loc 1 1571 0
	ldr	x28, [x0,96]
	.loc 1 1569 0
	adrp	x0, __stack_chk_guard
.LVL585:
.LBB2781:
.LBB2778:
.LBB2772:
.LBB2734:
.LBB2726:
.LBB2683:
.LBB2678:
	.loc 1 1475 0
	add	x24, x24, :lo12:vm_dirty_ratio
.LBE2678:
.LBE2683:
.LBE2726:
.LBE2734:
.LBE2772:
	.loc 1 1536 0
	str	xzr, [x29,120]
.LBB2773:
.LBB2735:
.LBB2727:
	.loc 1 1500 0
	mov	w27, 2
.LBE2727:
.LBE2735:
.LBE2773:
.LBE2778:
.LBE2781:
	.loc 1 1569 0
	ldr	x0, [x0,#:lo12:__stack_chk_guard]
	str	x0, [x29,136]
.LBB2782:
.LBB2779:
.LBB2774:
.LBB2736:
.LBB2728:
.LBB2684:
.LBB2685:
	.loc 1 1413 0 discriminator 5
	adrp	x0, .L402
	add	x0, x0, :lo12:.L402
	str	x0, [x29,96]
.LBE2685:
.LBE2684:
.LBB2716:
.LBB2679:
.LBB2622:
.LBB2623:
.LBB2624:
.LBB2625:
.LBB2626:
.LBB2627:
.LBB2628:
	.loc 2 247 0 discriminator 5
	add	x0, x26, :lo12:vm_zone_stat
.LBE2628:
.LBE2627:
.LBE2626:
.LBE2625:
.LBE2624:
.LBE2623:
.LBE2622:
	.loc 1 1475 0
	ldr	w19, [x24]
.LBE2679:
.LBE2716:
.LBE2728:
.LBE2736:
.LBE2774:
	.loc 1 1535 0
	ldr	x25, [x28,13016]
.LVL586:
.LBB2775:
.LBB2737:
.LBB2729:
.LBB2717:
.LBB2680:
	.loc 1 1475 0
	cmp	w19, 50
.LBB2647:
.LBB2644:
.LBB2641:
.LBB2638:
.LBB2635:
.LBB2632:
.LBB2629:
	.loc 2 247 0 discriminator 5
	ldr	x21, [x0,112]
.LBE2629:
.LBE2632:
.LBE2635:
.LBE2638:
.LBE2641:
.LBE2644:
.LBE2647:
.LBE2680:
.LBE2717:
.LBE2729:
.LBE2737:
.LBE2775:
	.loc 1 1536 0
	mov	x20, x25
.LBB2776:
.LBB2738:
.LBB2730:
.LBB2718:
.LBB2681:
.LBB2648:
.LBB2649:
.LBB2650:
.LBB2651:
.LBB2652:
.LBB2653:
.LBB2654:
	.loc 2 247 0 discriminator 5
	ldr	x23, [x0,168]
.LBE2654:
.LBE2653:
.LBE2652:
.LBE2651:
.LBE2650:
.LBE2649:
.LBE2648:
.LBB2661:
.LBB2662:
.LBB2663:
.LBB2664:
.LBB2665:
.LBB2666:
.LBB2667:
	ldr	x22, [x0,120]
.LBE2667:
.LBE2666:
.LBE2665:
.LBE2664:
.LBE2663:
.LBE2662:
.LBE2661:
	.loc 1 1475 0
	bgt	.L395
.L453:
	.loc 1 1476 0
	add	w19, w19, 10
	bl	global_dirtyable_memory
.LVL587:
	mov	x1, 62915
	sxtw	x19, w19
	movk	x1, 0x5c28, lsl 16
	movk	x1, 0xc28f, lsl 32
	mul	x0, x0, x19
	movk	x1, 0x28f5, lsl 48
	lsr	x19, x0, 2
	umulh	x19, x19, x1
	.loc 1 1480 0
	bl	pch_lowmem_check2
.LVL588:
	cmp	w0, wzr
	.loc 1 1476 0
	lsr	x19, x19, 2
.LVL589:
	.loc 1 1480 0
	ble	.L452
.L397:
.LBE2681:
.LBE2718:
	.loc 1 1500 0
	str	w27, [x20,428]
	ldr	x19, [x28,13016]
.LVL590:
.LBB2719:
.LBB2720:
.LBB2721:
	.loc 1 1404 0
	mov	x0, x19
	ldr	w1, [x19,332]
	cmp	w1, 16
	beq	.L407
	.loc 1 1406 0
	mov	w0, 16
	str	w0, [x19,332]
	.loc 1 1407 0
	bl	ktime_get
.LVL591:
	str	x0, [x19,368]
	ldr	x0, [x28,13016]
.LVL592:
.L407:
.LBE2721:
.LBE2720:
.LBE2719:
.LBE2730:
.LBE2738:
.LBB2739:
.LBB2740:
	.loc 1 1383 0
	ldr	x1, [x28,13024]
	cbz	x1, .L393
.L455:
	.loc 1 1383 0 is_stmt 0 discriminator 1
	ldr	x19, [x1,208]
.LVL593:
	cbz	x19, .L393
.LBB2741:
	.loc 1 1385 0 is_stmt 1
	ldr	x1, [x19]
	ldr	x1, [x1,24]
	cbz	x1, .L393
.LBB2742:
.LBB2743:
	.loc 9 291 0
	add	x20, x0, 304
.LBE2743:
.LBE2742:
	.loc 1 1386 0 discriminator 1
	mov	x0, x20
	bl	_raw_spin_lock_irqsave
.LVL594:
	str	x0, [x29,104]
	.loc 1 1387 0
	ldr	x2, [x19]
	mov	x0, x28
.LVL595:
	ldr	x2, [x2,24]
	blr	x2
.LVL596:
	mov	x19, x0
.LVL597:
.LBB2744:
.LBB2745:
	.loc 9 362 0
	ldr	x1, [x29,104]
.LVL598:
	mov	x0, x20
	bl	_raw_spin_unlock_irqrestore
.LVL599:
.LBE2745:
.LBE2744:
.LBE2741:
.LBE2740:
.LBE2739:
	.loc 1 1544 0
	cbz	x19, .L393
	.loc 1 1547 0
	ldr	x4, [x19,72]
	.loc 1 1550 0
	mov	x0, x19
.LBB2747:
.LBB2748:
	.loc 6 53 0
	ldr	x6, [x28,288]
.LBE2748:
.LBE2747:
	.loc 1 1550 0
	mov	x2, x25
.LBB2751:
.LBB2749:
	.loc 6 53 0
	ldr	x1, [x28,312]
.LBE2749:
.LBE2751:
	.loc 1 1550 0
	add	x3, x29, 112
	.loc 1 1547 0
	ldr	w7, [x4,64]
	.loc 1 1550 0
	mov	x4, x28
.LBB2752:
.LBB2750:
	.loc 6 53 0
	ldr	w6, [x6,w7,sxtw 2]
	ldr	x1, [x1,w6,uxtw 3]
.LBE2750:
.LBE2752:
	.loc 1 1548 0
	str	x19, [x29,112]
	.loc 1 1550 0
	bl	ufs_mq_queue_rq
.LVL600:
	.loc 1 1552 0
	cbnz	w0, .L413
.LBB2753:
.LBB2754:
	.file 18 "/mnt/disk/jenkins/ci/workspace/chipset_patch_970_docker/opensource/component_code/vendor/huawei/extra/build/build_script/kirin_kernel_release/kernel/include/linux/blkdev.h"
	.loc 18 1263 0
	ldr	w0, [x19,104]
.LVL601:
.LBE2754:
.LBE2753:
	.loc 1 1553 0
	ldr	x19, [x19,112]
.LVL602:
	ubfx	x0, x0, 9, 23
	ldr	x20, [x28,13016]
	add	x0, x0, x19
	str	x0, [x28,328]
.LVL603:
.L459:
.LBB2755:
.LBB2731:
.LBB2722:
.LBB2682:
.LBB2674:
.LBB2645:
.LBB2642:
.LBB2639:
.LBB2636:
.LBB2633:
.LBB2630:
	.loc 2 247 0 discriminator 5
	add	x0, x26, :lo12:vm_zone_stat
.LBE2630:
.LBE2633:
.LBE2636:
.LBE2639:
.LBE2642:
.LBE2645:
.LBE2674:
	.loc 1 1475 0
	ldr	w19, [x24]
.LVL604:
	cmp	w19, 50
.LBB2675:
.LBB2646:
.LBB2643:
.LBB2640:
.LBB2637:
.LBB2634:
.LBB2631:
	.loc 2 247 0 discriminator 5
	ldr	x21, [x0,112]
.LVL605:
.LBE2631:
.LBE2634:
.LBE2637:
.LBE2640:
.LBE2643:
.LBE2646:
.LBE2675:
.LBB2676:
.LBB2660:
.LBB2659:
.LBB2658:
.LBB2657:
.LBB2656:
.LBB2655:
	ldr	x23, [x0,168]
.LBE2655:
.LBE2656:
.LBE2657:
.LBE2658:
.LBE2659:
.LBE2660:
.LBE2676:
.LBB2677:
.LBB2673:
.LBB2672:
.LBB2671:
.LBB2670:
.LBB2669:
.LBB2668:
	ldr	x22, [x0,120]
.LBE2668:
.LBE2669:
.LBE2670:
.LBE2671:
.LBE2672:
.LBE2673:
.LBE2677:
	.loc 1 1475 0
	ble	.L453
.L395:
	.loc 1 1478 0
	bl	global_dirtyable_memory
.LVL606:
	sxtw	x19, w19
	mov	x1, 62915
	mul	x0, x0, x19
	movk	x1, 0x5c28, lsl 16
	movk	x1, 0xc28f, lsl 32
	lsr	x19, x0, 2
	movk	x1, 0x28f5, lsl 48
	umulh	x19, x19, x1
	.loc 1 1480 0
	bl	pch_lowmem_check2
.LVL607:
	cmp	w0, wzr
	.loc 1 1478 0
	lsr	x19, x19, 2
.LVL608:
	.loc 1 1480 0
	bgt	.L397
.L452:
	cmp	x23, xzr
	csel	x23, x23, xzr, ge
	cmp	x22, xzr
	csel	x22, x22, xzr, ge
	cmp	x21, xzr
	csel	x21, x21, xzr, ge
	add	x23, x23, x22
	.loc 1 1474 0
	add	x21, x23, x21
.LVL609:
	.loc 1 1491 0
	cmp	x21, x19
	cset	w0, hi
	str	w0, [x20,428]
.LBE2682:
.LBE2722:
	.loc 1 1501 0
	cbnz	w0, .L399
.LBB2723:
.LBB2713:
	.loc 1 1412 0
	ldr	x19, [x28,13016]
.LVL610:
.LBB2686:
.LBB2687:
.LBB2688:
	.loc 2 247 0 discriminator 4
	ldr	w0, [x19,424]
.LBE2688:
.LBE2687:
.LBE2686:
	.loc 1 1413 0 discriminator 5
	cmp	w0, 3
	bls	.L454
.L400:
	.loc 1 1432 0 discriminator 5
	ldr	x1, [x28,14920]
.LBB2689:
.LBB2690:
	.loc 1 1404 0
	mov	x0, x19
.LBE2690:
.LBE2689:
.LBB2694:
.LBB2695:
.LBB2696:
	.loc 2 247 0 discriminator 4
	ldr	w3, [x28,1168]
.LBE2696:
.LBE2695:
.LBE2694:
.LBB2697:
.LBB2691:
	.loc 1 1404 0
	ldr	w2, [x19,332]
.LBE2691:
.LBE2697:
	.loc 1 1432 0 discriminator 5
	ldr	w1, [x1,1356]
	sub	w1, w1, #4
	.loc 1 1432 0 is_stmt 0 discriminator 7
	cmp	w3, w1
	mov	w3, 12
	mov	w1, 16
	csel	w1, w1, w3, hi
.LBB2698:
.LBB2692:
	.loc 1 1404 0 is_stmt 1
	cmp	w2, w1
	beq	.L407
	.loc 1 1406 0
	str	w1, [x19,332]
	.loc 1 1407 0
	bl	ktime_get
.LVL611:
	str	x0, [x19,368]
	ldr	x0, [x28,13016]
.L458:
.LBE2692:
.LBE2698:
.LBE2713:
.LBE2723:
.LBE2731:
.LBE2755:
.LBB2756:
.LBB2746:
	.loc 1 1383 0
	ldr	x1, [x28,13024]
	cbnz	x1, .L455
.LVL612:
.L393:
.LBE2746:
.LBE2756:
.LBE2776:
.LBE2779:
.LBE2782:
	.loc 1 1572 0
	adrp	x0, __stack_chk_guard
	ldr	x1, [x29,136]
	ldr	x0, [x0,#:lo12:__stack_chk_guard]
	cmp	x1, x0
	bne	.L456
	ldp	x19, x20, [sp,16]
	.cfi_remember_state
	.cfi_restore 20
	.cfi_restore 19
.LVL613:
	ldp	x21, x22, [sp,32]
	.cfi_restore 22
	.cfi_restore 21
.LVL614:
	ldp	x23, x24, [sp,48]
	.cfi_restore 24
	.cfi_restore 23
	ldp	x25, x26, [sp,64]
	.cfi_restore 26
	.cfi_restore 25
.LVL615:
	ldp	x27, x28, [sp,80]
	.cfi_restore 28
	.cfi_restore 27
	ldp	x29, x30, [sp], 144
	.cfi_restore 30
	.cfi_restore 29
	.cfi_def_cfa 31, 0
	ret
.LVL616:
.L454:
	.cfi_restore_state
.LBB2783:
.LBB2780:
.LBB2777:
.LBB2757:
.LBB2732:
.LBB2724:
.LBB2714:
	.loc 1 1413 0 discriminator 5
	ldr	x1, [x29,96]
	ldrb	w0, [x1,w0,uxtw]
	adr	x1, .Lrtx402
	add	x0, x1, w0, sxtb #2
	br	x0
.Lrtx402:
	.section	.rodata
	.align	0
	.align	2
.L402:
	.byte	(.L400 - .Lrtx402) / 4
	.byte	(.L403 - .Lrtx402) / 4
	.byte	(.L404 - .Lrtx402) / 4
	.byte	(.L405 - .Lrtx402) / 4
	.text
.LVL617:
.L399:
.LBE2714:
.LBE2724:
	.loc 1 1512 0
	ldr	x0, [x28,13016]
	bl	ufs_mq_async_fwb_mode_inflight_limit_calc.isra.21
.LVL618:
	ldr	x0, [x28,13016]
	b	.L407
.LVL619:
.L413:
.LBE2732:
.LBE2757:
	.loc 1 1555 0
	cmp	w0, 2
	beq	.L457
	.loc 1 1560 0
	mov	x0, x19
.LVL620:
	bl	__blk_mq_requeue_request
.LVL621:
.LBB2758:
.LBB2759:
	.loc 1 1345 0
	ldr	x20, [x28,13016]
.LVL622:
	.loc 1 1347 0
	mov	x0, x19
	mov	w1, 5
	bl	hisi_blk_latency_req_check
.LVL623:
	.loc 1 1348 0
	ldr	x0, [x28,13024]
	cbz	x0, .L416
	.loc 1 1348 0 is_stmt 0 discriminator 1
	ldr	x21, [x0,208]
.LVL624:
	cbz	x21, .L416
.LBB2760:
	.loc 1 1350 0 is_stmt 1
	ldr	x0, [x21]
	ldr	x0, [x0,32]
	cbz	x0, .L416
.LBB2761:
.LBB2762:
	.loc 9 291 0
	add	x20, x20, 304
.LVL625:
.LBE2762:
.LBE2761:
	.loc 1 1351 0 discriminator 1
	mov	x0, x20
	bl	_raw_spin_lock_irqsave
.LVL626:
	mov	x22, x0
.LVL627:
	.loc 1 1352 0
	ldr	x2, [x21]
	mov	x0, x19
	mov	x1, x28
	ldr	x2, [x2,32]
	blr	x2
.LVL628:
.LBB2763:
.LBB2764:
	.loc 9 362 0
	mov	x0, x20
	mov	x1, x22
	bl	_raw_spin_unlock_irqrestore
.LVL629:
.L416:
.LBE2764:
.LBE2763:
.LBE2760:
.LBE2759:
.LBE2758:
.LBB2765:
.LBB2766:
.LBB2767:
.LBB2768:
	.loc 10 492 0
	adrp	x1, .LANCHOR0+8
.LBE2768:
.LBE2767:
	.loc 1 1317 0
	ldr	x2, [x28,13016]
.LBB2770:
.LBB2769:
	.loc 10 492 0
	mov	x3, 3
	mov	w0, 8
	add	x2, x2, 128
	ldr	x1, [x1,#:lo12:.LANCHOR0+8]
	bl	queue_delayed_work_on
.LVL630:
	b	.L393
.LVL631:
.L404:
.LBE2769:
.LBE2770:
.LBE2766:
.LBE2765:
.LBB2771:
.LBB2733:
.LBB2725:
.LBB2715:
.LBB2699:
.LBB2700:
	.loc 1 1404 0
	ldr	w1, [x19,332]
	mov	x0, x19
	cmp	w1, 1
	beq	.L407
	.loc 1 1406 0
	mov	w0, 1
	str	w0, [x19,332]
	.loc 1 1407 0
	bl	ktime_get
.LVL632:
	str	x0, [x19,368]
	ldr	x0, [x28,13016]
	b	.L407
.L403:
.LBE2700:
.LBE2699:
.LBB2701:
.LBB2702:
	.loc 1 1404 0
	ldr	w1, [x19,332]
	mov	x0, x19
	cmp	w1, 2
	beq	.L407
	.loc 1 1406 0
	str	w27, [x19,332]
	.loc 1 1407 0
	bl	ktime_get
.LVL633:
	str	x0, [x19,368]
	ldr	x0, [x28,13016]
	b	.L407
.L405:
.LBE2702:
.LBE2701:
	.loc 1 1425 0 discriminator 5
	ldr	x1, [x28,14920]
.LBB2703:
.LBB2704:
	.loc 1 1404 0
	mov	x0, x19
.LBE2704:
.LBE2703:
.LBB2707:
.LBB2708:
.LBB2709:
	.loc 2 247 0 discriminator 4
	ldr	w3, [x28,1168]
.LBE2709:
.LBE2708:
.LBE2707:
.LBB2710:
.LBB2705:
	.loc 1 1404 0
	ldr	w2, [x19,332]
.LBE2705:
.LBE2710:
	.loc 1 1425 0 discriminator 5
	ldr	w1, [x1,1356]
	sub	w1, w1, #4
	.loc 1 1425 0 is_stmt 0 discriminator 7
	cmp	w3, w1
	mov	w3, 8
	mov	w1, 12
	csel	w1, w1, w3, hi
.LBB2711:
.LBB2706:
	.loc 1 1404 0 is_stmt 1
	cmp	w2, w1
	beq	.L407
.LBE2706:
.LBE2711:
.LBB2712:
.LBB2693:
	.loc 1 1406 0
	str	w1, [x19,332]
	.loc 1 1407 0
	bl	ktime_get
.LVL634:
	str	x0, [x19,368]
	ldr	x0, [x28,13016]
	b	.L458
.LVL635:
.L457:
.LBE2693:
.LBE2712:
.LBE2715:
.LBE2725:
.LBE2733:
.LBE2771:
	.loc 1 1556 0
	mov	w1, -5
	.loc 1 1557 0
	mov	x0, x19
.LVL636:
	.loc 1 1556 0
	str	w1, [x19,564]
	.loc 1 1557 0
	bl	blk_mq_end_request
.LVL637:
	ldr	x20, [x28,13016]
	b	.L459
.LVL638:
.L456:
.LBE2777:
.LBE2780:
.LBE2783:
	.loc 1 1572 0
	bl	__stack_chk_fail
.LVL639:
	.cfi_endproc
.LFE3176:
	.size	ufs_mq_async_io_dispatch_work_fn, .-ufs_mq_async_io_dispatch_work_fn
	.align	2
	.type	ufs_mq_run_requeue, %function
ufs_mq_run_requeue:
.LFB3195:
	.loc 1 1789 0
	.cfi_startproc
.LVL640:
	stp	x29, x30, [sp, -64]!
	.cfi_def_cfa_offset 64
	.cfi_offset 29, -64
	.cfi_offset 30, -56
.LBB2802:
.LBB2803:
.LBB2804:
.LBB2805:
.LBB2806:
	.loc 10 492 0
	mov	x3, 0
.LBE2806:
.LBE2805:
.LBE2804:
.LBE2803:
.LBE2802:
	.loc 1 1789 0
	add	x29, sp, 0
	.cfi_def_cfa_register 29
	stp	x19, x20, [sp,16]
	.cfi_offset 19, -48
	.cfi_offset 20, -40
	mov	x19, x0
.LBB2815:
.LBB2813:
.LBB2811:
.LBB2809:
.LBB2807:
	.loc 10 492 0
	mov	w0, 8
.LVL641:
.LBE2807:
.LBE2809:
.LBE2811:
.LBE2813:
.LBE2815:
	.loc 1 1789 0
	stp	x21, x22, [sp,32]
	.cfi_offset 21, -32
	.cfi_offset 22, -24
.LBB2816:
.LBB2814:
.LBB2812:
	.loc 1 762 0
	adrp	x21, .LANCHOR0
	ldr	x2, [x19,13016]
.LBB2810:
.LBB2808:
	.loc 10 492 0
	ldr	x1, [x21,#:lo12:.LANCHOR0]
	add	x2, x2, 24
	bl	queue_delayed_work_on
.LVL642:
.LBE2808:
.LBE2810:
.LBE2812:
.LBE2814:
.LBE2816:
.LBB2817:
.LBB2818:
	.loc 1 1363 0
	ldr	x0, [x19,13024]
	.loc 1 1362 0
	ldr	x2, [x19,13016]
.LVL643:
	.loc 1 1363 0
	cbz	x0, .L461
	.loc 1 1363 0 is_stmt 0 discriminator 1
	ldr	x22, [x0,208]
	cbz	x22, .L461
.LBB2819:
	.loc 1 1365 0 is_stmt 1
	ldr	x0, [x22]
	ldr	x0, [x0,48]
	cbz	x0, .L461
.LBB2820:
.LBB2821:
	.loc 9 291 0
	add	x20, x2, 304
.LBE2821:
.LBE2820:
	.loc 1 1366 0 discriminator 1
	mov	x0, x20
	bl	_raw_spin_lock_irqsave
.LVL644:
	str	x0, [x29,56]
	.loc 1 1367 0
	ldr	x2, [x22]
	mov	x0, x19
.LVL645:
	ldr	x2, [x2,48]
	blr	x2
.LVL646:
	uxtb	w22, w0
.LVL647:
.LBB2822:
.LBB2823:
	.loc 9 362 0
	ldr	x1, [x29,56]
.LVL648:
	mov	x0, x20
	bl	_raw_spin_unlock_irqrestore
.LVL649:
.LBE2823:
.LBE2822:
.LBE2819:
.LBE2818:
.LBE2817:
	.loc 1 1791 0
	cbz	w22, .L466
	.loc 1 1794 0
	ldp	x19, x20, [sp,16]
	.cfi_remember_state
	.cfi_restore 20
	.cfi_restore 19
.LVL650:
	ldp	x21, x22, [sp,32]
	.cfi_restore 22
	.cfi_restore 21
.LVL651:
	mov	w0, 0
	ldp	x29, x30, [sp], 64
	.cfi_restore 30
	.cfi_restore 29
	.cfi_def_cfa 31, 0
	ret
.LVL652:
.L466:
	.cfi_restore_state
	ldr	x2, [x19,13016]
.LVL653:
.L461:
.LBB2824:
.LBB2825:
.LBB2826:
	.loc 1 1317 0
	add	x21, x21, :lo12:.LANCHOR0
.LBB2827:
.LBB2828:
	.loc 10 492 0
	add	x2, x2, 128
.LVL654:
	mov	x3, 0
	mov	w0, 8
	ldr	x1, [x21,8]
	bl	queue_delayed_work_on
.LVL655:
.LBE2828:
.LBE2827:
.LBE2826:
.LBE2825:
.LBE2824:
	.loc 1 1794 0
	mov	w0, 0
	ldp	x19, x20, [sp,16]
	.cfi_restore 19
	.cfi_restore 20
.LVL656:
	ldp	x21, x22, [sp,32]
	.cfi_restore 21
	.cfi_restore 22
.LVL657:
	ldp	x29, x30, [sp], 64
	.cfi_restore 29
	.cfi_restore 30
	.cfi_def_cfa 31, 0
	ret
	.cfi_endproc
.LFE3195:
	.size	ufs_mq_run_requeue, .-ufs_mq_run_requeue
	.align	2
	.type	ufs_mq_exec_queue, %function
ufs_mq_exec_queue:
.LFB3192:
	.loc 1 1765 0
	.cfi_startproc
.LVL658:
	stp	x29, x30, [sp, -64]!
	.cfi_def_cfa_offset 64
	.cfi_offset 29, -64
	.cfi_offset 30, -56
	add	x29, sp, 0
	.cfi_def_cfa_register 29
	stp	x19, x20, [sp,16]
	.cfi_offset 19, -48
	.cfi_offset 20, -40
	mov	x20, x0
	str	x21, [sp,32]
	.cfi_offset 21, -32
	.loc 1 1766 0
	bl	ufs_mq_sync_dispatch
.LVL659:
.LBB2851:
.LBB2852:
	.loc 1 1363 0
	ldr	x0, [x20,13024]
	.loc 1 1362 0
	ldr	x2, [x20,13016]
.LVL660:
	.loc 1 1363 0
	cbz	x0, .L468
	.loc 1 1363 0 is_stmt 0 discriminator 1
	ldr	x21, [x0,208]
	cbz	x21, .L468
.LBB2853:
	.loc 1 1365 0 is_stmt 1
	ldr	x0, [x21]
	ldr	x0, [x0,48]
	cbz	x0, .L468
.LBB2854:
.LBB2855:
	.loc 9 291 0
	add	x19, x2, 304
.LBE2855:
.LBE2854:
	.loc 1 1366 0 discriminator 1
	mov	x0, x19
	bl	_raw_spin_lock_irqsave
.LVL661:
	str	x0, [x29,56]
	.loc 1 1367 0
	ldr	x2, [x21]
	mov	x0, x20
.LVL662:
	ldr	x2, [x2,48]
	blr	x2
.LVL663:
	uxtb	w21, w0
.LVL664:
.LBB2856:
.LBB2857:
	.loc 9 362 0
	ldr	x1, [x29,56]
.LVL665:
	mov	x0, x19
	bl	_raw_spin_unlock_irqrestore
.LVL666:
.LBE2857:
.LBE2856:
.LBE2853:
.LBE2852:
.LBE2851:
	.loc 1 1767 0
	cbz	w21, .L473
	.loc 1 1770 0
	ldp	x19, x20, [sp,16]
	.cfi_remember_state
	.cfi_restore 20
	.cfi_restore 19
.LVL667:
	ldr	x21, [sp,32]
	.cfi_restore 21
.LVL668:
	mov	w0, 0
	ldp	x29, x30, [sp], 64
	.cfi_restore 30
	.cfi_restore 29
	.cfi_def_cfa 31, 0
	ret
.LVL669:
.L473:
	.cfi_restore_state
	ldr	x2, [x20,13016]
.LVL670:
.L468:
.LBB2858:
.LBB2859:
.LBB2860:
.LBB2861:
.LBB2862:
.LBB2863:
	.loc 10 492 0
	adrp	x1, .LANCHOR0+8
	add	x2, x2, 128
.LVL671:
	mov	x3, 0
	mov	w0, 8
	ldr	x1, [x1,#:lo12:.LANCHOR0+8]
	bl	queue_delayed_work_on
.LVL672:
.LBE2863:
.LBE2862:
.LBE2861:
.LBE2860:
.LBE2859:
.LBE2858:
	.loc 1 1770 0
	ldr	x21, [sp,32]
	.cfi_restore 21
.LVL673:
	ldp	x19, x20, [sp,16]
	.cfi_restore 19
	.cfi_restore 20
.LVL674:
	mov	w0, 0
	ldp	x29, x30, [sp], 64
	.cfi_restore 29
	.cfi_restore 30
	.cfi_def_cfa 31, 0
	ret
	.cfi_endproc
.LFE3192:
	.size	ufs_mq_exec_queue, .-ufs_mq_exec_queue
	.align	2
	.type	ufs_mq_io_guard_work_fn, %function
ufs_mq_io_guard_work_fn:
.LFB3181:
	.loc 1 1616 0
	.cfi_startproc
.LVL675:
	stp	x29, x30, [sp, -64]!
	.cfi_def_cfa_offset 64
	.cfi_offset 29, -64
	.cfi_offset 30, -56
	add	x29, sp, 0
	.cfi_def_cfa_register 29
	stp	x21, x22, [sp,32]
	.cfi_offset 21, -32
	.cfi_offset 22, -24
.LBB2902:
.LBB2903:
	.loc 9 302 0
	adrp	x22, .LANCHOR2
.LBE2903:
.LBE2902:
	.loc 1 1616 0
	str	x23, [sp,48]
	.cfi_offset 23, -16
.LBB2906:
.LBB2904:
	.loc 9 302 0
	add	x23, x22, :lo12:.LANCHOR2
	adrp	x21, .LANCHOR0
	mov	x0, x23
.LVL676:
.LBE2904:
.LBE2906:
	.loc 1 1616 0
	stp	x19, x20, [sp,16]
	.cfi_offset 19, -48
	.cfi_offset 20, -40
.LBB2907:
.LBB2905:
	.loc 9 302 0
	bl	_raw_spin_lock
.LVL677:
.LBE2905:
.LBE2907:
.LBB2908:
.LBB2909:
	.loc 9 347 0
	mov	x20, x23
.LBE2909:
.LBE2908:
.LBB2911:
	.loc 1 1620 0
	ldr	x19, [x23,32]!
.LVL678:
.LBE2911:
	.loc 1 1620 0 is_stmt 0 discriminator 1
	cmp	x19, x23
.LBB2912:
	.loc 1 1620 0
	sub	x19, x19, #432
.LVL679:
.LBE2912:
	.loc 1 1620 0 discriminator 1
	bne	.L484
	b	.L479
.L476:
.LBB2913:
.LBB2914:
.LBB2915:
.LBB2916:
.LBB2917:
	.loc 2 247 0 is_stmt 1 discriminator 4
	ldr	w0, [x1,1168]
.LBE2917:
.LBE2916:
.LBE2915:
	.loc 1 1610 0 discriminator 5
	cbz	w0, .L477
.LBB2918:
.LBB2919:
.LBB2920:
	.loc 2 247 0 discriminator 4
	ldr	w0, [x19,16]
.LBE2920:
.LBE2919:
.LBE2918:
	.loc 1 1610 0
	cbnz	w0, .L477
.LBB2921:
.LBB2922:
.LBB2923:
	.loc 1 1317 0
	add	x4, x21, :lo12:.LANCHOR0
	ldr	x2, [x1,13016]
.LBB2924:
.LBB2925:
	.loc 10 492 0
	mov	x3, 0
	mov	w0, 8
	add	x2, x2, 128
	ldr	x1, [x4,8]
	bl	queue_delayed_work_on
.LVL680:
.L477:
.LBE2925:
.LBE2924:
.LBE2923:
.LBE2922:
.LBE2921:
.LBE2914:
.LBE2913:
.LBB2939:
.LBB2940:
	.loc 9 302 0
	mov	x0, x20
	bl	_raw_spin_lock
.LVL681:
.LBE2940:
.LBE2939:
.LBB2941:
	.loc 1 1620 0 discriminator 3
	ldr	x19, [x19,432]
.LVL682:
.LBE2941:
	.loc 1 1620 0 is_stmt 0 discriminator 1
	cmp	x19, x23
.LBB2942:
	.loc 1 1620 0 discriminator 3
	sub	x19, x19, #432
.LVL683:
.LBE2942:
	.loc 1 1620 0 discriminator 1
	beq	.L479
.L484:
.LBB2943:
.LBB2910:
	.loc 9 347 0 is_stmt 1
	mov	x0, x20
	bl	_raw_spin_unlock
.LVL684:
.LBE2910:
.LBE2943:
.LBB2944:
.LBB2938:
.LBB2926:
	.loc 1 1605 0 discriminator 1
	ldr	x1, [x19]
.LBB2927:
.LBB2928:
	.loc 2 247 0 discriminator 4
	ldr	w0, [x1,1172]
.LBE2928:
.LBE2927:
.LBE2926:
.LBB2929:
.LBB2930:
.LBB2931:
	ldr	w2, [x1,1164]
.LBE2931:
.LBE2930:
.LBE2929:
	.loc 1 1605 0
	cmn	w0, w2
	beq	.L476
.LBB2932:
.LBB2933:
.LBB2934:
	.loc 2 247 0 discriminator 4
	ldr	w0, [x19,8]
.LBE2934:
.LBE2933:
.LBE2932:
.LBB2935:
.LBB2936:
.LBB2937:
	ldr	w2, [x19,12]
.LBE2937:
.LBE2936:
.LBE2935:
	.loc 1 1606 0
	cmn	w0, w2
	bne	.L476
	.loc 1 1608 0
	mov	x0, x1
	bl	ufs_mq_sync_dispatch
.LVL685:
	ldr	x1, [x19]
	b	.L476
.L479:
.LBE2938:
.LBE2944:
.LBB2945:
.LBB2946:
	.loc 9 347 0
	add	x0, x22, :lo12:.LANCHOR2
.LBE2946:
.LBE2945:
	.loc 1 1626 0
	add	x21, x21, :lo12:.LANCHOR0
.LBB2948:
.LBB2947:
	.loc 9 347 0
	bl	_raw_spin_unlock
.LVL686:
.LBE2947:
.LBE2948:
.LBB2949:
.LBB2950:
	.loc 10 492 0
	ldr	x1, [x21,16]
	add	x2, x21, 24
	mov	x3, 500
	mov	w0, 8
	bl	queue_delayed_work_on
.LVL687:
.LBE2950:
.LBE2949:
	.loc 1 1627 0
	ldr	x23, [sp,48]
	.cfi_restore 23
	ldp	x19, x20, [sp,16]
	.cfi_restore 20
	.cfi_restore 19
.LVL688:
	ldp	x21, x22, [sp,32]
	.cfi_restore 22
	.cfi_restore 21
	ldp	x29, x30, [sp], 64
	.cfi_restore 30
	.cfi_restore 29
	.cfi_def_cfa 31, 0
	ret
	.cfi_endproc
.LFE3181:
	.size	ufs_mq_io_guard_work_fn, .-ufs_mq_io_guard_work_fn
	.align	2
	.type	ufs_mq_run_hw_queue, %function
ufs_mq_run_hw_queue:
.LFB3193:
	.loc 1 1773 0
	.cfi_startproc
.LVL689:
	stp	x29, x30, [sp, -64]!
	.cfi_def_cfa_offset 64
	.cfi_offset 29, -64
	.cfi_offset 30, -56
.LBB2969:
.LBB2970:
.LBB2971:
.LBB2972:
.LBB2973:
	.loc 10 492 0
	mov	x3, 0
.LBE2973:
.LBE2972:
.LBE2971:
.LBE2970:
.LBE2969:
	.loc 1 1773 0
	add	x29, sp, 0
	.cfi_def_cfa_register 29
	stp	x19, x20, [sp,16]
	.cfi_offset 19, -48
	.cfi_offset 20, -40
	mov	x19, x0
.LBB2982:
.LBB2980:
.LBB2978:
.LBB2976:
.LBB2974:
	.loc 10 492 0
	mov	w0, 8
.LVL690:
.LBE2974:
.LBE2976:
.LBE2978:
.LBE2980:
.LBE2982:
	.loc 1 1773 0
	stp	x21, x22, [sp,32]
	.cfi_offset 21, -32
	.cfi_offset 22, -24
.LBB2983:
.LBB2981:
.LBB2979:
	.loc 1 762 0
	adrp	x21, .LANCHOR0
	ldr	x2, [x19,13016]
.LBB2977:
.LBB2975:
	.loc 10 492 0
	ldr	x1, [x21,#:lo12:.LANCHOR0]
	add	x2, x2, 24
	bl	queue_delayed_work_on
.LVL691:
.LBE2975:
.LBE2977:
.LBE2979:
.LBE2981:
.LBE2983:
.LBB2984:
.LBB2985:
	.loc 1 1363 0
	ldr	x0, [x19,13024]
	.loc 1 1362 0
	ldr	x2, [x19,13016]
.LVL692:
	.loc 1 1363 0
	cbz	x0, .L490
	.loc 1 1363 0 is_stmt 0 discriminator 1
	ldr	x22, [x0,208]
	cbz	x22, .L490
.LBB2986:
	.loc 1 1365 0 is_stmt 1
	ldr	x0, [x22]
	ldr	x0, [x0,48]
	cbz	x0, .L490
.LBB2987:
.LBB2988:
	.loc 9 291 0
	add	x20, x2, 304
.LBE2988:
.LBE2987:
	.loc 1 1366 0 discriminator 1
	mov	x0, x20
	bl	_raw_spin_lock_irqsave
.LVL693:
	str	x0, [x29,56]
	.loc 1 1367 0
	ldr	x2, [x22]
	mov	x0, x19
.LVL694:
	ldr	x2, [x2,48]
	blr	x2
.LVL695:
	uxtb	w22, w0
.LVL696:
.LBB2989:
.LBB2990:
	.loc 9 362 0
	ldr	x1, [x29,56]
.LVL697:
	mov	x0, x20
	bl	_raw_spin_unlock_irqrestore
.LVL698:
.LBE2990:
.LBE2989:
.LBE2986:
.LBE2985:
.LBE2984:
	.loc 1 1775 0
	cbz	w22, .L495
	.loc 1 1778 0
	ldp	x19, x20, [sp,16]
	.cfi_remember_state
	.cfi_restore 20
	.cfi_restore 19
.LVL699:
	ldp	x21, x22, [sp,32]
	.cfi_restore 22
	.cfi_restore 21
.LVL700:
	mov	w0, 0
	ldp	x29, x30, [sp], 64
	.cfi_restore 30
	.cfi_restore 29
	.cfi_def_cfa 31, 0
	ret
.LVL701:
.L495:
	.cfi_restore_state
	ldr	x2, [x19,13016]
.LVL702:
.L490:
.LBB2991:
.LBB2992:
.LBB2993:
	.loc 1 1317 0
	add	x21, x21, :lo12:.LANCHOR0
.LBB2994:
.LBB2995:
	.loc 10 492 0
	add	x2, x2, 128
.LVL703:
	mov	x3, 0
	mov	w0, 8
	ldr	x1, [x21,8]
	bl	queue_delayed_work_on
.LVL704:
.LBE2995:
.LBE2994:
.LBE2993:
.LBE2992:
.LBE2991:
	.loc 1 1778 0
	mov	w0, 0
	ldp	x19, x20, [sp,16]
	.cfi_restore 19
	.cfi_restore 20
.LVL705:
	ldp	x21, x22, [sp,32]
	.cfi_restore 21
	.cfi_restore 22
.LVL706:
	ldp	x29, x30, [sp], 64
	.cfi_restore 29
	.cfi_restore 30
	.cfi_def_cfa 31, 0
	ret
	.cfi_endproc
.LFE3193:
	.size	ufs_mq_run_hw_queue, .-ufs_mq_run_hw_queue
	.align	2
	.type	ufs_mq_req_insert, %function
ufs_mq_req_insert:
.LFB3186:
	.loc 1 1681 0
	.cfi_startproc
.LVL707:
	stp	x29, x30, [sp, -48]!
	.cfi_def_cfa_offset 48
	.cfi_offset 29, -48
	.cfi_offset 30, -40
	mov	x3, x1
	add	x29, sp, 0
	.cfi_def_cfa_register 29
	stp	x19, x20, [sp,16]
	str	x21, [sp,32]
	.cfi_offset 19, -32
	.cfi_offset 20, -24
	.cfi_offset 21, -16
	.loc 1 1681 0
	mov	x20, x0
	.loc 1 1682 0
	ldr	x2, [x0,88]
.LVL708:
	tbz	x2, 3, .L502
.L497:
	ldr	x19, [x3,13016]
.LVL709:
.LBB3009:
.LBB3010:
	.loc 1 774 0
	mov	w1, 4
.LVL710:
	mov	x0, x20
.LBB3011:
.LBB3012:
	.loc 9 291 0
	add	x21, x19, 280
.LBE3012:
.LBE3011:
	.loc 1 774 0
	bl	hisi_blk_latency_req_check
.LVL711:
	.loc 1 775 0 discriminator 1
	mov	x0, x21
	bl	_raw_spin_lock_irqsave
.LVL712:
	mov	x1, x0
.LVL713:
	.loc 1 776 0
	ldr	x2, [x20,88]
	.loc 1 776 0 is_stmt 0 discriminator 1
	add	x3, x19, 232
	add	x19, x19, 248
.LVL714:
.LBB3013:
.LBB3014:
	.loc 9 362 0 is_stmt 1
	mov	x0, x21
.LBE3014:
.LBE3013:
	.loc 1 776 0
	and	x2, x2, 2048
	.loc 1 776 0 is_stmt 0 discriminator 1
	cmp	x2, xzr
	csel	x19, x19, x3, eq
.LBB3016:
.LBB3017:
	.loc 3 77 0 is_stmt 1
	ldr	x2, [x19,8]
.LBB3018:
.LBB3019:
	.loc 3 42 0
	str	x20, [x19,8]
	.loc 3 43 0
	str	x19, [x20]
	.loc 3 44 0
	str	x2, [x20,8]
.LBB3020:
.LBB3021:
.LBB3022:
	.loc 2 276 0
	str	x20, [x2]
.LBE3022:
.LBE3021:
.LBE3020:
.LBE3019:
.LBE3018:
.LBE3017:
.LBE3016:
.LBB3023:
.LBB3015:
	.loc 9 362 0
	bl	_raw_spin_unlock_irqrestore
.LVL715:
.L501:
.LBE3015:
.LBE3023:
.LBE3010:
.LBE3009:
	.loc 1 1687 0
	mov	w0, 0
	ldr	x21, [sp,32]
	.cfi_remember_state
	.cfi_restore 21
	ldp	x19, x20, [sp,16]
	.cfi_restore 20
	.cfi_restore 19
.LVL716:
	ldp	x29, x30, [sp], 48
	.cfi_restore 30
	.cfi_restore 29
	.cfi_def_cfa 31, 0
	ret
.LVL717:
.L502:
	.cfi_restore_state
	.loc 1 1682 0 discriminator 1
	ldr	w2, [x0,84]
	cmp	w2, 1
	bne	.L497
	.loc 1 1685 0
	bl	ufs_mq_insert_async_list
.LVL718:
	b	.L501
	.cfi_endproc
.LFE3186:
	.size	ufs_mq_req_insert, .-ufs_mq_req_insert
	.align	2
	.type	ufs_mq_req_requeue, %function
ufs_mq_req_requeue:
.LFB3187:
	.loc 1 1690 0
	.cfi_startproc
.LVL719:
	stp	x29, x30, [sp, -48]!
	.cfi_def_cfa_offset 48
	.cfi_offset 29, -48
	.cfi_offset 30, -40
	mov	x3, x1
	add	x29, sp, 0
	.cfi_def_cfa_register 29
	stp	x19, x20, [sp,16]
	str	x21, [sp,32]
	.cfi_offset 19, -32
	.cfi_offset 20, -24
	.cfi_offset 21, -16
	.loc 1 1690 0
	mov	x20, x0
	.loc 1 1691 0
	ldr	x2, [x0,88]
	tbz	x2, 3, .L509
.L504:
	ldr	x19, [x3,13016]
.LVL720:
.LBB3037:
.LBB3038:
	.loc 1 774 0
	mov	w1, 4
.LVL721:
	mov	x0, x20
.LBB3039:
.LBB3040:
	.loc 9 291 0
	add	x21, x19, 280
.LBE3040:
.LBE3039:
	.loc 1 774 0
	bl	hisi_blk_latency_req_check
.LVL722:
	.loc 1 775 0 discriminator 1
	mov	x0, x21
	bl	_raw_spin_lock_irqsave
.LVL723:
	mov	x1, x0
.LVL724:
	.loc 1 776 0
	ldr	x2, [x20,88]
	.loc 1 776 0 is_stmt 0 discriminator 1
	add	x3, x19, 232
	add	x19, x19, 248
.LVL725:
.LBB3041:
.LBB3042:
	.loc 9 362 0 is_stmt 1
	mov	x0, x21
.LBE3042:
.LBE3041:
	.loc 1 776 0
	and	x2, x2, 2048
	.loc 1 776 0 is_stmt 0 discriminator 1
	cmp	x2, xzr
	csel	x19, x19, x3, eq
.LBB3044:
.LBB3045:
	.loc 3 77 0 is_stmt 1
	ldr	x2, [x19,8]
.LBB3046:
.LBB3047:
	.loc 3 42 0
	str	x20, [x19,8]
	.loc 3 43 0
	str	x19, [x20]
	.loc 3 44 0
	str	x2, [x20,8]
.LBB3048:
.LBB3049:
.LBB3050:
	.loc 2 276 0
	str	x20, [x2]
.LBE3050:
.LBE3049:
.LBE3048:
.LBE3047:
.LBE3046:
.LBE3045:
.LBE3044:
.LBB3051:
.LBB3043:
	.loc 9 362 0
	bl	_raw_spin_unlock_irqrestore
.LVL726:
.L508:
.LBE3043:
.LBE3051:
.LBE3038:
.LBE3037:
	.loc 1 1696 0
	mov	w0, 0
	ldr	x21, [sp,32]
	.cfi_remember_state
	.cfi_restore 21
	ldp	x19, x20, [sp,16]
	.cfi_restore 20
	.cfi_restore 19
.LVL727:
	ldp	x29, x30, [sp], 48
	.cfi_restore 30
	.cfi_restore 29
	.cfi_def_cfa 31, 0
	ret
.LVL728:
.L509:
	.cfi_restore_state
	.loc 1 1691 0 discriminator 1
	ldr	w2, [x0,84]
	cmp	w2, 1
	bne	.L504
	.loc 1 1694 0
	bl	ufs_mq_insert_async_list
.LVL729:
	b	.L508
	.cfi_endproc
.LFE3187:
	.size	ufs_mq_req_requeue, .-ufs_mq_req_requeue
	.align	2
	.global	ufs_mq_merge_queue_io
	.type	ufs_mq_merge_queue_io, %function
ufs_mq_merge_queue_io:
.LFB3140:
	.loc 1 831 0
	.cfi_startproc
.LVL730:
	stp	x29, x30, [sp, -96]!
	.cfi_def_cfa_offset 96
	.cfi_offset 29, -96
	.cfi_offset 30, -88
.LBB3076:
.LBB3077:
	.file 19 "/mnt/disk/jenkins/ci/workspace/chipset_patch_970_docker/opensource/component_code/vendor/huawei/extra/build/build_script/kirin_kernel_release/kernel/include/linux/bio.h"
	.loc 19 99 0
	mov	w4, 768
.LBE3077:
.LBE3076:
	.loc 1 831 0
	add	x29, sp, 0
	.cfi_def_cfa_register 29
	stp	x19, x20, [sp,16]
	stp	x21, x22, [sp,32]
	stp	x23, x24, [sp,48]
	str	x25, [sp,64]
	.cfi_offset 19, -80
	.cfi_offset 20, -72
	.cfi_offset 21, -64
	.cfi_offset 22, -56
	.cfi_offset 23, -48
	.cfi_offset 24, -40
	.cfi_offset 25, -32
	.loc 1 831 0
	mov	x21, x0
.LBB3081:
.LBB3078:
	.loc 19 99 0
	movk	w4, 0x807, lsl 16
.LBE3078:
.LBE3081:
	.loc 1 831 0
	mov	x20, x1
.LBB3082:
.LBB3079:
	.loc 19 99 0
	ldr	w0, [x3,20]
.LVL731:
.LBE3079:
.LBE3082:
	.loc 1 831 0
	mov	x19, x2
.LBB3083:
.LBB3080:
	.loc 19 99 0
	tst	w0, w4
	bne	.L519
.LBE3080:
.LBE3083:
	.loc 1 832 0 discriminator 1
	ldr	w0, [x2,84]
	cmp	w0, 2
	beq	.L519
.LBB3084:
.LBB3085:
.LBB3086:
	.loc 9 302 0
	mov	x0, x20
	str	x3, [x29,88]
.LBE3086:
.LBE3085:
	.loc 1 841 0
	ldr	x22, [x21,120]
.LVL732:
.LBB3088:
.LBB3087:
	.loc 9 302 0
	bl	_raw_spin_lock
.LVL733:
.LBE3087:
.LBE3088:
.LBB3089:
.LBB3090:
	.loc 1 814 0
	ldr	x3, [x29,88]
.LVL734:
	.loc 1 813 0
	ldr	x23, [x22,13016]
.LVL735:
	.loc 1 814 0
	ldr	w0, [x3,20]
	tbnz	x0, 3, .L518
	.loc 1 816 0
	ldr	x0, [x22,13024]
	cbz	x0, .L518
	.loc 1 816 0 is_stmt 0 discriminator 1
	ldr	x24, [x0,208]
	cbz	x24, .L518
.LBB3091:
	.loc 1 818 0 is_stmt 1
	ldr	x0, [x24]
	ldr	x0, [x0,40]
	cbz	x0, .L518
.LBB3092:
.LBB3093:
	.loc 9 291 0
	add	x23, x23, 304
.LVL736:
	str	x3, [x29,88]
.LBE3093:
.LBE3092:
	.loc 1 819 0 discriminator 1
	mov	x0, x23
	bl	_raw_spin_lock_irqsave
.LVL737:
	mov	x25, x0
.LVL738:
	.loc 1 820 0
	ldr	x2, [x24]
	mov	x1, x22
	ldr	x3, [x29,88]
.LVL739:
	ldr	x2, [x2,40]
	mov	x0, x3
	blr	x2
.LVL740:
	uxtb	w22, w0
.LVL741:
.LBB3094:
.LBB3095:
	.loc 9 362 0
	mov	x1, x25
	mov	x0, x23
	bl	_raw_spin_unlock_irqrestore
.LVL742:
.LBE3095:
.LBE3094:
.LBE3091:
.LBE3090:
.LBE3089:
	.loc 1 845 0
	ldr	x3, [x29,88]
.LVL743:
	cbz	w22, .L518
.LBB3096:
.LBB3097:
	.loc 9 347 0
	mov	x0, x20
	bl	_raw_spin_unlock
.LVL744:
.LBE3097:
.LBE3096:
	.loc 1 851 0
	mov	x0, x21
	mov	x1, x20
	mov	x2, x19
	bl	__blk_mq_free_request
.LVL745:
.LBE3084:
	.loc 1 854 0
	ldr	x25, [sp,64]
	.cfi_remember_state
	.cfi_restore 25
.LVL746:
	ldp	x19, x20, [sp,16]
	.cfi_restore 19
	.cfi_restore 20
.LVL747:
	ldp	x21, x22, [sp,32]
	.cfi_restore 21
	.cfi_restore 22
.LVL748:
	ldp	x23, x24, [sp,48]
	.cfi_restore 23
	.cfi_restore 24
.LBB3100:
	.loc 1 852 0
	mov	w0, 1
.LBE3100:
	.loc 1 854 0
	ldp	x29, x30, [sp], 96
	.cfi_restore 29
	.cfi_restore 30
	.cfi_def_cfa 31, 0
	ret
.LVL749:
.L519:
	.cfi_restore_state
.LBB3101:
.LBB3102:
	.loc 1 805 0
	mov	x1, x3
	mov	x0, x19
	bl	init_request_from_bio
.LVL750:
	.loc 1 806 0
	mov	x0, x19
	mov	w1, 1
	bl	blk_account_io_start
.LVL751:
.LBE3102:
.LBE3101:
.LBB3103:
.LBB3104:
	.loc 9 302 0
	mov	x0, x20
	bl	_raw_spin_lock
.LVL752:
.L512:
.LBE3104:
.LBE3103:
.LBB3105:
.LBB3106:
	.loc 1 1682 0
	ldr	x0, [x19,88]
.LBE3106:
.LBE3105:
	.loc 1 836 0
	ldr	x1, [x21,120]
.LBB3109:
.LBB3107:
	.loc 1 1682 0
	tbz	x0, 3, .L538
.L513:
	.loc 1 1683 0
	ldr	x1, [x1,13016]
	mov	x0, x19
	bl	ufs_mq_insert_sync_list.isra.23
.LVL753:
.L515:
.LBE3107:
.LBE3109:
.LBB3110:
.LBB3111:
	.loc 9 347 0
	mov	x0, x20
	bl	_raw_spin_unlock
.LVL754:
.LBE3111:
.LBE3110:
	.loc 1 854 0
	ldr	x25, [sp,64]
	.cfi_remember_state
	.cfi_restore 25
.LVL755:
	ldp	x19, x20, [sp,16]
	.cfi_restore 20
	.cfi_restore 19
.LVL756:
	ldp	x21, x22, [sp,32]
	.cfi_restore 22
	.cfi_restore 21
.LVL757:
	ldp	x23, x24, [sp,48]
	.cfi_restore 24
	.cfi_restore 23
.LVL758:
	.loc 1 839 0
	mov	w0, 0
	.loc 1 854 0
	ldp	x29, x30, [sp], 96
	.cfi_restore 30
	.cfi_restore 29
	.cfi_def_cfa 31, 0
	ret
.LVL759:
.L518:
	.cfi_restore_state
.LBB3112:
.LBB3098:
.LBB3099:
	.loc 1 805 0
	mov	x1, x3
	mov	x0, x19
	bl	init_request_from_bio
.LVL760:
	.loc 1 806 0
	mov	x0, x19
	mov	w1, 1
	bl	blk_account_io_start
.LVL761:
	b	.L512
.L538:
.LBE3099:
.LBE3098:
.LBE3112:
.LBB3113:
.LBB3108:
	.loc 1 1682 0 discriminator 1
	ldr	w0, [x19,84]
	cmp	w0, 1
	bne	.L513
	.loc 1 1685 0
	mov	x0, x19
	bl	ufs_mq_insert_async_list
.LVL762:
	b	.L515
.LBE3108:
.LBE3113:
	.cfi_endproc
.LFE3140:
	.size	ufs_mq_merge_queue_io, .-ufs_mq_merge_queue_io
	.align	2
	.type	ufs_mq_make_request, %function
ufs_mq_make_request:
.LFB3145:
	.loc 1 969 0
	.cfi_startproc
.LVL763:
	stp	x29, x30, [sp, -144]!
	.cfi_def_cfa_offset 144
	.cfi_offset 29, -144
	.cfi_offset 30, -136
	.loc 1 976 0
	mov	x2, x1
	.loc 1 969 0
	add	x29, sp, 0
	.cfi_def_cfa_register 29
	stp	x21, x22, [sp,32]
	stp	x23, x24, [sp,48]
	stp	x25, x26, [sp,64]
	stp	x19, x20, [sp,16]
	.cfi_offset 21, -112
	.cfi_offset 22, -104
	.cfi_offset 23, -96
	.cfi_offset 24, -88
	.cfi_offset 25, -80
	.cfi_offset 26, -72
	.cfi_offset 19, -128
	.cfi_offset 20, -120
	.loc 1 969 0
	mov	x21, x0
	adrp	x24, __stack_chk_guard
	.loc 1 976 0
	ldr	w0, [x1,20]
.LVL764:
	.loc 1 969 0
	str	x1, [x29,88]
	.loc 1 976 0
	lsr	w1, w0, 29
.LVL765:
	.loc 1 969 0
	ldr	x3, [x24,#:lo12:__stack_chk_guard]
.LBB3230:
.LBB3231:
	.loc 1 793 0
	cmp	w1, 5
.LBE3231:
.LBE3230:
	.loc 1 969 0
	str	x3, [x29,136]
.LBB3268:
.LBB3263:
	.loc 1 793 0
	cset	w25, eq
	cmp	w1, wzr
	cset	w22, eq
.LBE3263:
.LBE3268:
	.loc 1 977 0
	ldr	x19, [x21,13016]
.LVL766:
.LBB3269:
.LBB3264:
	.loc 1 793 0
	orr	w22, w25, w22
	cbz	w22, .L620
.L540:
	.loc 1 795 0
	orr	w0, w0, 8
	str	w0, [x2,20]
.LBB3232:
.LBB3233:
.LBB3234:
.LBB3235:
.LBB3236:
	.loc 2 247 0 discriminator 4
	ldr	w0, [x19,424]
.LBE3236:
.LBE3235:
.LBE3234:
	.loc 1 618 0 discriminator 5
	cbz	w0, .L543
	cmp	w0, 1
	beq	.L544
	.loc 1 635 0
	bl	ktime_get
.LVL767:
.LBE3233:
.LBE3232:
	.loc 1 797 0
	mov	w22, 1
.LBB3259:
.LBB3255:
	.loc 1 635 0
	str	x0, [x19,336]
.L541:
.LBE3255:
.LBE3259:
.LBE3264:
.LBE3269:
	.loc 1 982 0
	ldr	x2, [x21,14944]
	mov	x0, x21
	add	x1, x29, 88
	bl	blk_queue_split
.LVL768:
	.loc 1 987 0
	ldr	x1, [x29,88]
.LVL769:
	mov	x2, 0
	ldr	x0, [x21,80]
	ldr	w1, [x1,20]
.LVL770:
	bl	wbt_wait
.LVL771:
	uxtb	w26, w0
.LVL772:
	.loc 1 989 0
	ldr	x0, [x29,88]
	mov	w1, 3
	bl	hisi_blk_latency_bio_check
.LVL773:
	.loc 1 991 0
	ldr	x1, [x29,88]
	mov	x0, x21
	add	x2, x29, 96
	bl	blk_mq_map_request
.LVL774:
	mov	x20, x0
.LVL775:
	.loc 1 992 0
	cbz	x0, .L621
	.loc 1 998 0
	cbnz	w26, .L622
.L551:
	.loc 1 1001 0
	ldr	x0, [x29,96]
.LBB3270:
.LBB3271:
	.file 20 "/mnt/disk/jenkins/ci/workspace/chipset_patch_970_docker/opensource/component_code/vendor/huawei/extra/build/build_script/kirin_kernel_release/kernel/include/linux/blk_types.h"
	.loc 20 373 0
	ldr	w1, [x20,560]
	ldr	x3, [x29,88]
	ldr	w23, [x0,268]
	orr	w23, w1, w23, lsl 16
.LBE3271:
.LBE3270:
	.loc 1 1003 0
	cbnz	w25, .L553
	.loc 1 1003 0 is_stmt 0 discriminator 1
	ldr	w1, [x3,20]
	tbnz	x1, 9, .L553
	.loc 1 1012 0 is_stmt 1
	cbz	w22, .L556
.LBB3272:
.LBB3273:
.LBB3274:
	.loc 1 805 0
	mov	x1, x3
	mov	x0, x20
	bl	init_request_from_bio
.LVL776:
	.loc 1 806 0
	mov	x0, x20
	mov	w1, 1
	bl	blk_account_io_start
.LVL777:
.LBE3274:
.LBE3273:
	.loc 1 1020 0
	str	x20, [x29,112]
	ldr	x1, [x20,88]
	.loc 1 1021 0 discriminator 1
	ldr	x0, [x29,96]
.LBB3275:
.LBB3276:
.LBB3277:
.LBB3278:
	.loc 1 643 0
	tbz	x1, 3, .L557
	.loc 1 644 0
	tbnz	x1, 11, .L623
.LBB3279:
.LBB3280:
	.loc 8 113 0
	add	x3, x19, 12
#APP
// 113 "/mnt/disk/jenkins/ci/workspace/chipset_patch_970_docker/opensource/component_code/vendor/huawei/extra/build/build_script/kirin_kernel_release/kernel/arch/arm64/include/asm/atomic_ll_sc.h" 1
	// atomic_add_return
	prfm	pstl1strm, [x3]
1:	ldxr	w2, [x3]
	add	w2, w2, 1
	stlxr	w1, w2, [x3]
	cbnz	w1, 1b
	dmb ish
// 0 "" 2
.LVL778:
#NO_APP
.LBE3280:
.LBE3279:
	.loc 1 653 0
	ldr	w1, [x19,328]
.LVL779:
	cmp	w2, w1
	bgt	.L614
.LVL780:
.L559:
.LBE3278:
.LBE3277:
	.loc 1 733 0
	ldr	x2, [x21,280]
.LVL781:
	add	x1, x29, 112
.LVL782:
	ldr	x2, [x2]
	blr	x2
.LVL783:
	mov	w22, w0
.LVL784:
	.loc 1 735 0
	mov	w1, 6
	mov	x0, x20
	bl	hisi_blk_latency_req_check
.LVL785:
	.loc 1 737 0
	cbnz	w22, .L565
.LVL786:
.L564:
.LBE3276:
.LBE3275:
	.loc 1 1022 0
	ldr	x0, [x29,104]
.LVL787:
.LBB3310:
.LBB3311:
	.loc 6 89 0
	ldr	x1, [x0,304]
.LVL788:
	ldr	x1, [x1,13024]
	cbz	x1, .L569
	.loc 6 89 0 is_stmt 0 discriminator 1
	ldr	x1, [x1,80]
	cbz	x1, .L569
	.loc 6 90 0 is_stmt 1
	blr	x1
.LVL789:
	mov	w2, w0
.LVL790:
	.loc 6 91 0
	cbnz	w0, .L624
.LVL791:
.L571:
.LBE3311:
.LBE3310:
	.loc 1 1023 0
	cbnz	w22, .L625
.LVL792:
.L550:
.LBE3272:
	.loc 1 1052 0
	ldr	x2, [x29,136]
.LVL793:
	mov	w0, w23
.LVL794:
	ldr	x1, [x24,#:lo12:__stack_chk_guard]
.LVL795:
	cmp	x2, x1
	bne	.L626
	ldp	x19, x20, [sp,16]
	.cfi_remember_state
	.cfi_restore 20
	.cfi_restore 19
.LVL796:
	ldp	x21, x22, [sp,32]
	.cfi_restore 22
	.cfi_restore 21
.LVL797:
	ldp	x23, x24, [sp,48]
	.cfi_restore 24
	.cfi_restore 23
	ldp	x25, x26, [sp,64]
	.cfi_restore 26
	.cfi_restore 25
.LVL798:
	ldp	x29, x30, [sp], 144
	.cfi_restore 30
	.cfi_restore 29
	.cfi_def_cfa 31, 0
	ret
.LVL799:
.L544:
	.cfi_restore_state
.LBB3348:
.LBB3265:
.LBB3260:
.LBB3256:
	.loc 1 629 0
	bl	ktime_get
.LVL800:
.LBB3237:
.LBB3238:
.LBB3239:
	.loc 16 233 0
	ldr	x1, [x19,336]
	add	x1, x1, 9998336
	add	x1, x1, 1664
.LBE3239:
.LBE3238:
.LBB3240:
.LBB3241:
.LBB3242:
	.loc 16 144 0
	cmp	x1, x0
	ble	.L548
.LBE3242:
.LBE3241:
.LBE3240:
.LBE3237:
.LBB3243:
.LBB3244:
.LBB3245:
	.loc 2 275 0
	mov	w1, 2
	str	w1, [x19,424]
.L548:
.LBE3245:
.LBE3244:
.LBE3243:
	.loc 1 632 0
	str	x0, [x19,336]
.LBE3256:
.LBE3260:
	.loc 1 797 0
	mov	w22, 1
	b	.L541
.LVL801:
.L624:
.LBE3265:
.LBE3348:
.LBB3349:
.LBB3322:
.LBB3320:
	.loc 6 92 0
	cmn	w0, #1
	bne	.L627
.L569:
	.loc 6 93 0
.LBB3312:
.LBB3313:
.LBB3314:
.LBB3315:
.LBB3316:
	.loc 4 20 0
#APP
// 20 "/mnt/disk/jenkins/ci/workspace/chipset_patch_970_docker/opensource/component_code/vendor/huawei/extra/build/build_script/kirin_kernel_release/kernel/arch/arm64/include/asm/current.h" 1
	mrs x1, sp_el0
// 0 "" 2
.LVL802:
#NO_APP
.LBE3316:
.LBE3315:
.LBE3314:
	.loc 5 68 0
	ldr	w0, [x1,16]
.LVL803:
	sub	w0, w0, #1
	str	w0, [x1,16]
	cbnz	w0, .L571
.LBB3317:
.LBB3318:
.LBB3319:
	.loc 7 105 0
	ldr	x0, [x1]
.LBE3319:
.LBE3318:
.LBE3317:
	.loc 5 68 0 discriminator 1
	tbz	x0, 1, .L571
.LBE3313:
.LBE3312:
	.loc 6 93 0 discriminator 3
	bl	preempt_schedule
.LVL804:
	b	.L571
.LVL805:
.L543:
.LBE3320:
.LBE3322:
.LBE3349:
.LBB3350:
.LBB3266:
.LBB3261:
.LBB3257:
	.loc 1 620 0
	bl	ktime_get
.LVL806:
	mov	x20, x0
.LBB3246:
.LBB3247:
.LBB3248:
	.loc 16 233 0
	ldr	x0, [x19,336]
	add	x0, x0, 9998336
	add	x0, x0, 1664
.LBE3248:
.LBE3247:
.LBB3249:
.LBB3250:
.LBB3251:
	.loc 16 144 0
	cmp	x0, x20
	bgt	.L545
.L547:
.LBE3251:
.LBE3250:
.LBE3249:
.LBE3246:
	.loc 1 626 0
	str	x20, [x19,336]
.LBE3257:
.LBE3261:
	.loc 1 797 0
	mov	w22, 1
	b	.L541
.LVL807:
.L553:
.LBE3266:
.LBE3350:
.LBB3351:
.LBB3352:
	.loc 1 805 0
	mov	x1, x3
	mov	x0, x20
	bl	init_request_from_bio
.LVL808:
	.loc 1 806 0
	mov	x0, x20
	mov	w1, 1
	bl	blk_account_io_start
.LVL809:
.LBE3352:
.LBE3351:
	.loc 1 1008 0
	mov	x0, x20
	bl	blk_insert_flush
.LVL810:
.L555:
	.loc 1 1044 0
	ldr	x0, [x29,96]
	eor	w1, w22, 1
	bl	blk_mq_run_hw_queue
.LVL811:
.L578:
	.loc 1 1046 0
	ldr	x0, [x29,104]
.LBB3353:
.LBB3354:
	.loc 6 89 0
	ldr	x1, [x0,304]
	ldr	x1, [x1,13024]
	cbz	x1, .L581
	.loc 6 89 0 is_stmt 0 discriminator 1
	ldr	x1, [x1,80]
	cbz	x1, .L581
	.loc 6 90 0 is_stmt 1
	blr	x1
.LVL812:
	mov	w2, w0
.LVL813:
	.loc 6 91 0
	cbz	w0, .L550
	.loc 6 92 0
	cmn	w0, #1
	bne	.L628
.L581:
	.loc 6 93 0
.LBB3355:
.LBB3356:
.LBB3357:
.LBB3358:
.LBB3359:
	.loc 4 20 0
#APP
// 20 "/mnt/disk/jenkins/ci/workspace/chipset_patch_970_docker/opensource/component_code/vendor/huawei/extra/build/build_script/kirin_kernel_release/kernel/arch/arm64/include/asm/current.h" 1
	mrs x1, sp_el0
// 0 "" 2
.LVL814:
#NO_APP
.LBE3359:
.LBE3358:
.LBE3357:
	.loc 5 68 0
	ldr	w0, [x1,16]
	sub	w0, w0, #1
	str	w0, [x1,16]
	cbnz	w0, .L550
.LBB3360:
.LBB3361:
.LBB3362:
	.loc 7 105 0
	ldr	x0, [x1]
.LBE3362:
.LBE3361:
.LBE3360:
	.loc 5 68 0 discriminator 1
	tbz	x0, 1, .L550
.LBE3356:
.LBE3355:
	.loc 6 93 0 discriminator 3
	bl	preempt_schedule
.LVL815:
	b	.L550
.LVL816:
.L621:
.LBE3354:
.LBE3353:
	.loc 1 995 0
	mov	w23, -1
	.loc 1 993 0
	cbz	w26, .L550
	.loc 1 994 0
	ldr	x0, [x21,80]
.LVL817:
	bl	__wbt_done
.LVL818:
	b	.L550
.LVL819:
.L620:
.LBB3364:
.LBB3267:
	.loc 1 793 0 discriminator 1
	mov	w1, 280
.LVL820:
	tst	w0, w1
	bne	.L540
	b	.L541
.L545:
.LBB3262:
.LBB3258:
	.loc 1 624 0
	adrp	x1, jiffies
.LBB3252:
.LBB3253:
.LBB3254:
	.loc 2 275 0
	mov	w0, 1
	str	w0, [x19,424]
.LBE3254:
.LBE3253:
.LBE3252:
	.loc 1 624 0 discriminator 1
	add	x0, x19, 376
	.loc 1 622 0
	str	x20, [x19,344]
	.loc 1 624 0
	ldr	x1, [x1,#:lo12:jiffies]
	.loc 1 624 0 is_stmt 0 discriminator 1
	add	x1, x1, 3
	bl	mod_timer
.LVL821:
	b	.L547
.LVL822:
.L622:
.LBE3258:
.LBE3262:
.LBE3267:
.LBE3364:
.LBB3365:
.LBB3366:
	.file 21 "/mnt/disk/jenkins/ci/workspace/chipset_patch_970_docker/opensource/component_code/vendor/huawei/extra/build/build_script/kirin_kernel_release/kernel/include/linux/wbt.h"
	.loc 21 29 0 is_stmt 1
	ldr	x0, [x0,512]
.LVL823:
	orr	x0, x0, -9223372036854775808
	str	x0, [x20,512]
	b	.L551
.L556:
.LBE3366:
.LBE3365:
	.loc 1 1042 0
	ldr	x1, [x29,104]
	mov	x2, x20
	bl	ufs_mq_merge_queue_io
.LVL824:
	uxtb	w0, w0
	cbnz	w0, .L578
	b	.L555
.LVL825:
.L625:
.LBB3367:
	.loc 1 1025 0
	cmp	w22, 2
	beq	.L629
	.loc 1 1030 0
	ldr	x0, [x29,112]
	bl	__blk_mq_requeue_request
.LVL826:
	.loc 1 1035 0
	ldr	x20, [x29,112]
.LVL827:
.LBB3323:
.LBB3324:
	.loc 1 783 0
	ldr	x19, [x21,13016]
.LVL828:
	.loc 1 784 0
	mov	w1, 4
	mov	x0, x20
.LBB3325:
.LBB3326:
	.loc 9 291 0
	add	x22, x19, 280
.LVL829:
.LBE3326:
.LBE3325:
	.loc 1 784 0
	bl	hisi_blk_latency_req_check
.LVL830:
	.loc 1 785 0 discriminator 1
	mov	x0, x22
	bl	_raw_spin_lock_irqsave
.LVL831:
	mov	x1, x0
.LVL832:
	.loc 1 786 0
	ldr	x2, [x20,88]
	.loc 1 786 0 is_stmt 0 discriminator 1
	add	x3, x19, 232
	add	x19, x19, 248
.LVL833:
.LBB3327:
.LBB3328:
	.loc 9 362 0 is_stmt 1
	mov	x0, x22
.LBE3328:
.LBE3327:
	.loc 1 786 0
	and	x2, x2, 2048
	.loc 1 786 0 is_stmt 0 discriminator 1
	cmp	x2, xzr
	csel	x19, x19, x3, eq
.LBB3330:
.LBB3331:
	.loc 3 77 0 is_stmt 1
	ldr	x2, [x19,8]
.LBB3332:
.LBB3333:
	.loc 3 42 0
	str	x20, [x19,8]
	.loc 3 44 0
	str	x2, [x20,8]
	.loc 3 43 0
	str	x19, [x20]
.LBB3334:
.LBB3335:
.LBB3336:
	.loc 2 276 0
	str	x20, [x2]
.LBE3336:
.LBE3335:
.LBE3334:
.LBE3333:
.LBE3332:
.LBE3331:
.LBE3330:
.LBB3337:
.LBB3329:
	.loc 9 362 0
	bl	_raw_spin_unlock_irqrestore
.LVL834:
.LBE3329:
.LBE3337:
.LBB3338:
.LBB3339:
.LBB3340:
.LBB3341:
.LBB3342:
	.loc 10 492 0
	adrp	x1, .LANCHOR0
.LBE3342:
.LBE3341:
	.loc 1 762 0
	ldr	x2, [x21,13016]
.LBB3344:
.LBB3343:
	.loc 10 492 0
	mov	x3, 0
	mov	w0, 8
	add	x2, x2, 24
	ldr	x1, [x1,#:lo12:.LANCHOR0]
	bl	queue_delayed_work_on
.LVL835:
	b	.L550
.LVL836:
.L557:
.LBE3343:
.LBE3344:
.LBE3340:
.LBE3339:
.LBE3338:
.LBE3324:
.LBE3323:
.LBB3345:
.LBB3308:
.LBB3287:
.LBB3285:
.LBB3281:
.LBB3282:
	.loc 8 113 0
	add	x3, x19, 16
#APP
// 113 "/mnt/disk/jenkins/ci/workspace/chipset_patch_970_docker/opensource/component_code/vendor/huawei/extra/build/build_script/kirin_kernel_release/kernel/arch/arm64/include/asm/atomic_ll_sc.h" 1
	// atomic_add_return
	prfm	pstl1strm, [x3]
1:	ldxr	w2, [x3]
	add	w2, w2, 1
	stlxr	w1, w2, [x3]
	cbnz	w1, 1b
	dmb ish
// 0 "" 2
.LVL837:
#NO_APP
.LBE3282:
.LBE3281:
	.loc 1 668 0
	ldr	w1, [x19,332]
.LVL838:
	cmp	w2, w1
	ble	.L559
.LVL839:
.L614:
	.loc 1 673 0
	mov	w0, 2
	mov	w22, 1
.LVL840:
	str	w0, [x20,276]
.L561:
	ldr	x0, [x20,88]
.LBE3285:
.LBE3287:
.LBB3288:
.LBB3289:
	.loc 1 695 0
	tbz	x0, 3, .L562
	.loc 1 696 0
	tbnz	x0, 11, .L630
.LBB3290:
.LBB3291:
	.loc 8 114 0
	add	x2, x19, 12
.LVL841:
#APP
// 114 "/mnt/disk/jenkins/ci/workspace/chipset_patch_970_docker/opensource/component_code/vendor/huawei/extra/build/build_script/kirin_kernel_release/kernel/arch/arm64/include/asm/atomic_ll_sc.h" 1
	// atomic_sub
	prfm	pstl1strm, [x2]
1:	ldxr	w0, [x2]
	sub	w0, w0, 1
	stxr	w1, w0, [x2]
	cbnz	w1, 1b
// 0 "" 2
.LVL842:
#NO_APP
	b	.L564
.LVL843:
.L565:
.LBE3291:
.LBE3290:
.LBE3289:
.LBE3288:
	.loc 1 740 0
	mov	w0, 1
	str	w0, [x20,276]
.LBB3297:
.LBB3298:
.LBB3299:
	.loc 2 247 0 discriminator 4
	ldr	w2, [x19,8]
.LBE3299:
.LBE3298:
.LBE3297:
.LBB3300:
.LBB3301:
.LBB3302:
	ldr	w0, [x19,12]
.LBE3302:
.LBE3301:
.LBE3300:
.LBB3303:
.LBB3304:
.LBB3305:
	ldr	w1, [x19,16]
.LBE3305:
.LBE3304:
.LBE3303:
	.loc 1 742 0 discriminator 11
	add	w0, w2, w0
	.loc 1 742 0 is_stmt 0 discriminator 17
	add	w0, w0, w1
	cmp	w0, 8
	bgt	.L561
	.loc 1 743 0 is_stmt 1
	mov	w0, 3
	str	w0, [x20,276]
	b	.L561
.LVL844:
.L623:
.LBB3306:
.LBB3286:
.LBB3283:
.LBB3284:
	.loc 8 113 0
	add	x3, x19, 8
#APP
// 113 "/mnt/disk/jenkins/ci/workspace/chipset_patch_970_docker/opensource/component_code/vendor/huawei/extra/build/build_script/kirin_kernel_release/kernel/arch/arm64/include/asm/atomic_ll_sc.h" 1
	// atomic_add
	prfm	pstl1strm, [x3]
1:	ldxr	w1, [x3]
	add	w1, w1, 1
	stxr	w2, w1, [x3]
	cbnz	w2, 1b
// 0 "" 2
.LVL845:
#NO_APP
	b	.L559
.LVL846:
.L627:
.LBE3284:
.LBE3283:
.LBE3286:
.LBE3306:
.LBE3308:
.LBE3345:
.LBB3346:
.LBB3321:
	.loc 6 95 0
	adrp	x0, .LC8
.LVL847:
	adrp	x1, .LANCHOR1
	add	x1, x1, :lo12:.LANCHOR1
	add	x0, x0, :lo12:.LC8
	bl	printk
.LVL848:
	b	.L571
.LVL849:
.L629:
.LBE3321:
.LBE3346:
	.loc 1 1026 0
	ldr	x2, [x29,112]
.LVL850:
	mov	w3, -5
	.loc 1 1027 0
	mov	w1, w3
.LVL851:
	mov	x0, x2
.LVL852:
	.loc 1 1026 0
	str	w3, [x2,564]
	.loc 1 1027 0
	bl	blk_mq_end_request
.LVL853:
	.loc 1 1028 0
	b	.L550
.LVL854:
.L628:
.LBE3367:
.LBB3368:
.LBB3363:
	.loc 6 95 0
	adrp	x0, .LC8
.LVL855:
	adrp	x1, .LANCHOR1
	add	x1, x1, :lo12:.LANCHOR1
	add	x0, x0, :lo12:.LC8
	bl	printk
.LVL856:
	b	.L550
.LVL857:
.L562:
.LBE3363:
.LBE3368:
.LBB3369:
.LBB3347:
.LBB3309:
.LBB3307:
.LBB3296:
.LBB3292:
.LBB3293:
	.loc 8 114 0
	add	x2, x19, 16
.LVL858:
#APP
// 114 "/mnt/disk/jenkins/ci/workspace/chipset_patch_970_docker/opensource/component_code/vendor/huawei/extra/build/build_script/kirin_kernel_release/kernel/arch/arm64/include/asm/atomic_ll_sc.h" 1
	// atomic_sub
	prfm	pstl1strm, [x2]
1:	ldxr	w0, [x2]
	sub	w0, w0, 1
	stxr	w1, w0, [x2]
	cbnz	w1, 1b
// 0 "" 2
.LVL859:
#NO_APP
	b	.L564
.LVL860:
.L630:
.LBE3293:
.LBE3292:
.LBB3294:
.LBB3295:
	add	x2, x19, 8
.LVL861:
#APP
// 114 "/mnt/disk/jenkins/ci/workspace/chipset_patch_970_docker/opensource/component_code/vendor/huawei/extra/build/build_script/kirin_kernel_release/kernel/arch/arm64/include/asm/atomic_ll_sc.h" 1
	// atomic_sub
	prfm	pstl1strm, [x2]
1:	ldxr	w0, [x2]
	sub	w0, w0, 1
	stxr	w1, w0, [x2]
	cbnz	w1, 1b
// 0 "" 2
.LVL862:
#NO_APP
	b	.L564
.LVL863:
.L626:
.LBE3295:
.LBE3294:
.LBE3296:
.LBE3307:
.LBE3309:
.LBE3347:
.LBE3369:
	.loc 1 1052 0
	bl	__stack_chk_fail
.LVL864:
	.cfi_endproc
.LFE3145:
	.size	ufs_mq_make_request, .-ufs_mq_make_request
	.align	2
	.global	ufs_mq_flush_plug_list
	.type	ufs_mq_flush_plug_list, %function
ufs_mq_flush_plug_list:
.LFB3142:
	.loc 1 897 0
	.cfi_startproc
.LVL865:
	stp	x29, x30, [sp, -160]!
	.cfi_def_cfa_offset 160
	.cfi_offset 29, -160
	.cfi_offset 30, -152
	.loc 1 909 0
	add	x1, x0, 48
.LVL866:
	.loc 1 902 0
	mov	w3, 1
	.loc 1 897 0
	add	x29, sp, 0
	.cfi_def_cfa_register 29
	stp	x27, x28, [sp,80]
	.cfi_offset 27, -80
	.cfi_offset 28, -72
	adrp	x28, __stack_chk_guard
	stp	x23, x24, [sp,48]
	stp	x19, x20, [sp,16]
	ldr	x2, [x28,#:lo12:__stack_chk_guard]
	.cfi_offset 23, -112
	.cfi_offset 24, -104
	.cfi_offset 19, -144
	.cfi_offset 20, -136
	.loc 1 907 0
	add	x23, x29, 112
	.loc 1 897 0
	stp	x21, x22, [sp,32]
	stp	x25, x26, [sp,64]
	.cfi_offset 21, -128
	.cfi_offset 22, -120
	.cfi_offset 25, -96
	.cfi_offset 26, -88
	.loc 1 897 0
	str	x2, [x29,152]
	.loc 1 902 0
	str	xzr, [x29,128]
.LBB3370:
.LBB3371:
.LBB3372:
.LBB3373:
.LBB3374:
.LBB3375:
	.loc 2 247 0 discriminator 5
	ldr	x2, [x0,48]
.LBE3375:
.LBE3374:
.LBE3373:
.LBE3372:
.LBE3371:
.LBE3370:
	.loc 1 902 0
	str	xzr, [x29,136]
	strb	w3, [x29,144]
.LBB3386:
.LBB3383:
	.loc 3 322 0
	cmp	x1, x2
.LBE3383:
.LBE3386:
	.loc 1 907 0
	str	x23, [x29,112]
	str	x23, [x29,120]
.LBB3387:
.LBB3384:
	.loc 3 322 0
	beq	.L655
.LBB3376:
.LBB3377:
	.loc 3 278 0
	ldr	x3, [x0,48]
.LVL867:
	.loc 3 279 0
	ldr	x2, [x0,56]
.LVL868:
	.loc 3 282 0
	str	x3, [x29,112]
	.loc 3 281 0
	str	x23, [x3,8]
	.loc 3 284 0
	str	x23, [x2]
	.loc 3 285 0
	str	x2, [x29,120]
	ldr	x19, [x29,112]
.LBE3377:
.LBE3376:
.LBB3378:
.LBB3379:
.LBB3380:
.LBB3381:
.LBB3382:
	.loc 2 276 0
	str	x1, [x0,48]
.LBE3382:
.LBE3381:
.LBE3380:
	.loc 3 28 0
	str	x1, [x0,56]
	ldr	x0, [x19,8]
.LVL869:
	ldr	x21, [x19]
.L632:
.LBE3379:
.LBE3378:
.LBE3384:
.LBE3387:
.LBB3388:
.LBB3389:
.LBB3390:
	.loc 6 95 0
	adrp	x27, .LC8
	adrp	x26, .LANCHOR1
	add	x1, x26, :lo12:.LANCHOR1
	adrp	x25, __per_cpu_offset
	add	x27, x27, :lo12:.LC8
	str	x1, [x29,104]
.LBE3390:
.LBE3389:
.LBB3402:
.LBB3403:
.LBB3404:
.LBB3405:
	.loc 6 82 0
	adrp	x24, cpu_number
	add	x24, x24, :lo12:cpu_number
.LVL870:
.LBE3405:
.LBB3408:
.LBB3409:
.LBB3410:
.LBB3411:
.LBB3412:
	.loc 4 20 0
#APP
// 20 "/mnt/disk/jenkins/ci/workspace/chipset_patch_970_docker/opensource/component_code/vendor/huawei/extra/build/build_script/kirin_kernel_release/kernel/arch/arm64/include/asm/current.h" 1
	mrs x22, sp_el0
// 0 "" 2
.LVL871:
#NO_APP
.LBE3412:
.LBE3411:
.LBE3410:
.LBE3409:
.LBE3408:
.LBB3414:
	.loc 6 82 0
.LVL872:
.L653:
.LBE3414:
.LBE3404:
.LBE3403:
.LBE3402:
	.loc 1 913 0
	ldr	x26, [x19,64]
	.loc 1 914 0
	ldr	x20, [x26,13016]
.LBB3421:
.LBB3422:
.LBB3423:
.LBB3424:
	.loc 3 89 0
	str	x0, [x21,8]
.LBB3425:
.LBB3426:
.LBB3427:
	.loc 2 276 0
	str	x21, [x0]
.LBE3427:
.LBE3426:
.LBE3425:
.LBE3424:
.LBE3423:
.LBE3422:
.LBB3428:
.LBB3429:
.LBB3430:
.LBB3431:
.LBB3432:
	str	x19, [x19]
.LBE3432:
.LBE3431:
.LBE3430:
	.loc 3 28 0
	str	x19, [x19,8]
.LBE3429:
.LBE3428:
.LBE3421:
	.loc 1 916 0
	str	x19, [x29,128]
.LBB3433:
.LBB3420:
.LBB3417:
.LBB3415:
.LBB3413:
	.loc 5 53 0
	ldr	w0, [x22,16]
	add	w0, w0, 1
	str	w0, [x22,16]
.LBE3413:
.LBE3415:
	.loc 6 82 0
.LBB3416:
.LBB3406:
.LBB3407:
	.loc 13 34 0
#APP
// 34 "/mnt/disk/jenkins/ci/workspace/chipset_patch_970_docker/opensource/component_code/vendor/huawei/extra/build/build_script/kirin_kernel_release/kernel/arch/arm64/include/asm/percpu.h" 1
	mrs x0, tpidr_el1
// 0 "" 2
.LVL873:
#NO_APP
.LBE3407:
.LBE3406:
.LBE3416:
.LBE3417:
.LBB3418:
.LBB3419:
	.loc 6 71 0
	ldr	w1, [x0,x24]
.LVL874:
	add	x0, x25, :lo12:__per_cpu_offset
.LVL875:
	ldr	x2, [x19,88]
.LVL876:
	ldr	x1, [x0,x1,lsl 3]
	ldr	x0, [x26,296]
.LVL877:
	add	x0, x0, x1
.LVL878:
.LBE3419:
.LBE3418:
.LBE3420:
.LBE3433:
	.loc 1 917 0
	str	x0, [x19,72]
.LBB3434:
.LBB3435:
	.loc 6 53 0
	ldr	x1, [x26,288]
.LBE3435:
.LBE3434:
	.loc 1 918 0
	ldr	w4, [x0,64]
.LBB3437:
.LBB3436:
	.loc 6 53 0
	ldr	x0, [x26,312]
	ldr	w1, [x1,w4,sxtw 2]
	ldr	x0, [x0,w1,uxtw 3]
.LBE3436:
.LBE3437:
.LBB3438:
.LBB3439:
.LBB3440:
.LBB3441:
	.loc 1 643 0
	tbz	x2, 3, .L633
	.loc 1 644 0
	tbnz	x2, 11, .L674
.LBB3442:
.LBB3443:
	.loc 8 113 0
	add	x3, x20, 12
.LVL879:
#APP
// 113 "/mnt/disk/jenkins/ci/workspace/chipset_patch_970_docker/opensource/component_code/vendor/huawei/extra/build/build_script/kirin_kernel_release/kernel/arch/arm64/include/asm/atomic_ll_sc.h" 1
	// atomic_add_return
	prfm	pstl1strm, [x3]
1:	ldxr	w2, [x3]
	add	w2, w2, 1
	stlxr	w1, w2, [x3]
	cbnz	w1, 1b
	dmb ish
// 0 "" 2
.LVL880:
#NO_APP
.LBE3443:
.LBE3442:
	.loc 1 653 0
	ldr	w1, [x20,328]
.LVL881:
	cmp	w2, w1
	bgt	.L670
.LVL882:
.L635:
.LBE3441:
.LBE3440:
	.loc 1 733 0
	ldr	x2, [x26,280]
.LVL883:
	add	x1, x29, 128
.LVL884:
	ldr	x2, [x2]
	blr	x2
.LVL885:
	mov	w21, w0
.LVL886:
	.loc 1 735 0
	mov	w1, 6
	mov	x0, x19
	bl	hisi_blk_latency_req_check
.LVL887:
	.loc 1 737 0
	cbnz	w21, .L675
.LVL888:
.L640:
.LBE3439:
.LBE3438:
	.loc 1 920 0
	ldr	x0, [x19,72]
.LVL889:
.LBB3475:
.LBB3399:
	.loc 6 89 0
	ldr	x1, [x0,304]
.LVL890:
	ldr	x1, [x1,13024]
	cbz	x1, .L645
	.loc 6 89 0 is_stmt 0 discriminator 1
	ldr	x1, [x1,80]
	cbz	x1, .L645
	.loc 6 90 0 is_stmt 1
	blr	x1
.LVL891:
	mov	w2, w0
.LVL892:
	.loc 6 91 0
	cbz	w0, .L647
	.loc 6 92 0
	cmn	w0, #1
	bne	.L676
.L645:
	.loc 6 93 0
.LBB3391:
.LBB3392:
.LBB3393:
.LBB3394:
.LBB3395:
	.loc 4 20 0
#APP
// 20 "/mnt/disk/jenkins/ci/workspace/chipset_patch_970_docker/opensource/component_code/vendor/huawei/extra/build/build_script/kirin_kernel_release/kernel/arch/arm64/include/asm/current.h" 1
	mrs x1, sp_el0
// 0 "" 2
.LVL893:
#NO_APP
.LBE3395:
.LBE3394:
.LBE3393:
	.loc 5 68 0
	ldr	w0, [x1,16]
	sub	w0, w0, #1
	str	w0, [x1,16]
	cbnz	w0, .L647
.LBB3396:
.LBB3397:
.LBB3398:
	.loc 7 105 0
	ldr	x0, [x1]
.LBE3398:
.LBE3397:
.LBE3396:
	.loc 5 68 0 discriminator 1
	tbnz	x0, 1, .L677
.L647:
.LBE3392:
.LBE3391:
.LBE3399:
.LBE3475:
	.loc 1 921 0
	cbnz	w21, .L678
.L650:
.LBE3388:
.LBB3486:
.LBB3487:
.LBB3488:
.LBB3489:
	.loc 2 247 0 discriminator 5
	ldr	x0, [x29,112]
.LBE3489:
.LBE3488:
.LBE3487:
.LBE3486:
	.loc 1 931 0
	cmp	x23, x0
	beq	.L631
.L680:
	ldr	x19, [x29,112]
	ldr	x21, [x19]
.LVL894:
	ldr	x0, [x19,8]
	b	.L653
.LVL895:
.L677:
.LBB3493:
.LBB3476:
.LBB3400:
	.loc 6 93 0 discriminator 3
	bl	preempt_schedule
.LVL896:
.LBE3400:
.LBE3476:
	.loc 1 921 0
	cbz	w21, .L650
.LVL897:
.L678:
	.loc 1 922 0
	cmp	w21, 2
	beq	.L679
	.loc 1 926 0
	mov	x0, x19
	bl	__blk_mq_requeue_request
.LVL898:
	.loc 1 927 0
	ldr	x1, [x26,13016]
	mov	x0, x19
	bl	ufs_mq_insert_sync_list.isra.23
.LVL899:
.LBB3477:
.LBB3478:
.LBB3479:
.LBB3480:
	.loc 10 492 0
	adrp	x1, .LANCHOR0
.LBE3480:
.LBE3479:
	.loc 1 762 0
	ldr	x2, [x26,13016]
.LBB3482:
.LBB3481:
	.loc 10 492 0
	mov	w0, 8
	mov	x3, 0
	add	x2, x2, 24
	ldr	x1, [x1,#:lo12:.LANCHOR0]
	bl	queue_delayed_work_on
.LVL900:
.LBE3481:
.LBE3482:
.LBE3478:
.LBE3477:
.LBE3493:
.LBB3494:
.LBB3492:
.LBB3491:
.LBB3490:
	.loc 2 247 0 discriminator 5
	ldr	x0, [x29,112]
.LBE3490:
.LBE3491:
.LBE3492:
.LBE3494:
	.loc 1 931 0
	cmp	x23, x0
	bne	.L680
.LVL901:
.L631:
	.loc 1 932 0
	ldr	x1, [x29,152]
.LVL902:
	ldr	x0, [x28,#:lo12:__stack_chk_guard]
	cmp	x1, x0
	bne	.L681
	ldp	x19, x20, [sp,16]
	.cfi_remember_state
	.cfi_restore 20
	.cfi_restore 19
.LVL903:
	ldp	x21, x22, [sp,32]
	.cfi_restore 22
	.cfi_restore 21
.LVL904:
	ldp	x23, x24, [sp,48]
	.cfi_restore 24
	.cfi_restore 23
.LVL905:
	ldp	x25, x26, [sp,64]
	.cfi_restore 26
	.cfi_restore 25
.LVL906:
	ldp	x27, x28, [sp,80]
	.cfi_restore 28
	.cfi_restore 27
	ldp	x29, x30, [sp], 160
	.cfi_restore 30
	.cfi_restore 29
	.cfi_def_cfa 31, 0
	ret
.LVL907:
.L633:
	.cfi_restore_state
.LBB3495:
.LBB3483:
.LBB3473:
.LBB3450:
.LBB3448:
.LBB3444:
.LBB3445:
	.loc 8 113 0
	add	x3, x20, 16
.LVL908:
#APP
// 113 "/mnt/disk/jenkins/ci/workspace/chipset_patch_970_docker/opensource/component_code/vendor/huawei/extra/build/build_script/kirin_kernel_release/kernel/arch/arm64/include/asm/atomic_ll_sc.h" 1
	// atomic_add_return
	prfm	pstl1strm, [x3]
1:	ldxr	w2, [x3]
	add	w2, w2, 1
	stlxr	w1, w2, [x3]
	cbnz	w1, 1b
	dmb ish
// 0 "" 2
.LVL909:
#NO_APP
.LBE3445:
.LBE3444:
	.loc 1 668 0
	ldr	w1, [x20,332]
.LVL910:
	cmp	w2, w1
	ble	.L635
.LVL911:
.L670:
	.loc 1 673 0
	mov	w0, 2
	mov	w21, 1
.LVL912:
	str	w0, [x19,276]
.L637:
	ldr	x0, [x19,88]
.LBE3448:
.LBE3450:
.LBB3451:
.LBB3452:
	.loc 1 695 0
	tbz	x0, 3, .L638
.L683:
	.loc 1 696 0
	tbnz	x0, 11, .L682
.LBB3453:
.LBB3454:
	.loc 8 114 0
	add	x2, x20, 12
.LVL913:
#APP
// 114 "/mnt/disk/jenkins/ci/workspace/chipset_patch_970_docker/opensource/component_code/vendor/huawei/extra/build/build_script/kirin_kernel_release/kernel/arch/arm64/include/asm/atomic_ll_sc.h" 1
	// atomic_sub
	prfm	pstl1strm, [x2]
1:	ldxr	w0, [x2]
	sub	w0, w0, 1
	stxr	w1, w0, [x2]
	cbnz	w1, 1b
// 0 "" 2
.LVL914:
#NO_APP
	b	.L640
.LVL915:
.L675:
.LBE3454:
.LBE3453:
.LBE3452:
.LBE3451:
	.loc 1 740 0
	mov	w0, 1
	str	w0, [x19,276]
.LBB3461:
.LBB3462:
.LBB3463:
	.loc 2 247 0 discriminator 4
	ldr	w2, [x20,8]
.LBE3463:
.LBE3462:
.LBE3461:
.LBB3464:
.LBB3465:
.LBB3466:
	ldr	w0, [x20,12]
.LBE3466:
.LBE3465:
.LBE3464:
.LBB3467:
.LBB3468:
.LBB3469:
	ldr	w1, [x20,16]
.LBE3469:
.LBE3468:
.LBE3467:
	.loc 1 742 0 discriminator 11
	add	w0, w2, w0
	.loc 1 742 0 is_stmt 0 discriminator 17
	add	w0, w0, w1
	cmp	w0, 8
	bgt	.L637
	.loc 1 743 0 is_stmt 1
	mov	w0, 3
	str	w0, [x19,276]
	ldr	x0, [x19,88]
.LBB3470:
.LBB3459:
	.loc 1 695 0
	tbnz	x0, 3, .L683
.LVL916:
.L638:
.LBB3455:
.LBB3456:
	.loc 8 114 0
	add	x2, x20, 16
.LVL917:
#APP
// 114 "/mnt/disk/jenkins/ci/workspace/chipset_patch_970_docker/opensource/component_code/vendor/huawei/extra/build/build_script/kirin_kernel_release/kernel/arch/arm64/include/asm/atomic_ll_sc.h" 1
	// atomic_sub
	prfm	pstl1strm, [x2]
1:	ldxr	w0, [x2]
	sub	w0, w0, 1
	stxr	w1, w0, [x2]
	cbnz	w1, 1b
// 0 "" 2
.LVL918:
#NO_APP
	b	.L640
.LVL919:
.L674:
.LBE3456:
.LBE3455:
.LBE3459:
.LBE3470:
.LBB3471:
.LBB3449:
.LBB3446:
.LBB3447:
	.loc 8 113 0
	add	x3, x20, 8
.LVL920:
#APP
// 113 "/mnt/disk/jenkins/ci/workspace/chipset_patch_970_docker/opensource/component_code/vendor/huawei/extra/build/build_script/kirin_kernel_release/kernel/arch/arm64/include/asm/atomic_ll_sc.h" 1
	// atomic_add
	prfm	pstl1strm, [x3]
1:	ldxr	w1, [x3]
	add	w1, w1, 1
	stxr	w2, w1, [x3]
	cbnz	w2, 1b
// 0 "" 2
.LVL921:
#NO_APP
	b	.L635
.LVL922:
.L676:
.LBE3447:
.LBE3446:
.LBE3449:
.LBE3471:
.LBE3473:
.LBE3483:
.LBB3484:
.LBB3401:
	.loc 6 95 0
	ldr	x1, [x29,104]
	mov	x0, x27
.LVL923:
	bl	printk
.LVL924:
	b	.L647
.LVL925:
.L682:
.LBE3401:
.LBE3484:
.LBB3485:
.LBB3474:
.LBB3472:
.LBB3460:
.LBB3457:
.LBB3458:
	.loc 8 114 0
	add	x2, x20, 8
.LVL926:
#APP
// 114 "/mnt/disk/jenkins/ci/workspace/chipset_patch_970_docker/opensource/component_code/vendor/huawei/extra/build/build_script/kirin_kernel_release/kernel/arch/arm64/include/asm/atomic_ll_sc.h" 1
	// atomic_sub
	prfm	pstl1strm, [x2]
1:	ldxr	w0, [x2]
	sub	w0, w0, 1
	stxr	w1, w0, [x2]
	cbnz	w1, 1b
// 0 "" 2
.LVL927:
#NO_APP
	b	.L640
.LVL928:
.L655:
.LBE3458:
.LBE3457:
.LBE3460:
.LBE3472:
.LBE3474:
.LBE3485:
.LBE3495:
.LBB3496:
.LBB3385:
	.loc 3 322 0
	mov	x21, x23
	mov	x0, x23
.LVL929:
	mov	x19, x23
	b	.L632
.LVL930:
.L679:
.LBE3385:
.LBE3496:
.LBB3497:
	.loc 1 923 0
	mov	w1, -5
.LVL931:
	.loc 1 924 0
	mov	x0, x19
	.loc 1 923 0
	str	w1, [x19,564]
	.loc 1 924 0
	bl	blk_mq_end_request
.LVL932:
	b	.L650
.LVL933:
.L681:
.LBE3497:
	.loc 1 932 0
	bl	__stack_chk_fail
.LVL934:
	.cfi_endproc
.LFE3142:
	.size	ufs_mq_flush_plug_list, .-ufs_mq_flush_plug_list
	.global	hisi_ufs_blk_tagset_ops
	.global	hisi_ufs_blk_queue_ops
	.global	hisi_ufs_mq
	.global	hisi_mq_sync_long_burst_duration_ms
	.section	.rodata
	.align	3
.LANCHOR1 = . + 0
	.type	__func__.38479, %object
	.size	__func__.38479, 15
__func__.38479:
	.string	"blk_mq_put_ctx"
	.zero	1
	.type	__func__.38968, %object
	.size	__func__.38968, 28
__func__.38968:
	.string	"ufs_tagset_init_bitmap_tags"
	.section	__ksymtab_strings,"a",%progbits
	.type	__kstrtab_blk_mq_tagset_ufs_mq_iosched_enable, %object
	.size	__kstrtab_blk_mq_tagset_ufs_mq_iosched_enable, 36
__kstrtab_blk_mq_tagset_ufs_mq_iosched_enable:
	.string	"blk_mq_tagset_ufs_mq_iosched_enable"
	.data
	.align	3
.LANCHOR2 = . + 0
	.type	hisi_io_guard_request_queue_list_lock, %object
	.size	hisi_io_guard_request_queue_list_lock, 24
hisi_io_guard_request_queue_list_lock:
	.hword	0
	.hword	0
	.word	-559067475
	.word	-1
	.zero	4
	.xword	-1
	.type	hisi_mq_sync_long_burst_duration_ms, %object
	.size	hisi_mq_sync_long_burst_duration_ms, 4
hisi_mq_sync_long_burst_duration_ms:
	.word	5000
	.zero	4
	.type	hisi_io_guard_request_queue_list, %object
	.size	hisi_io_guard_request_queue_list, 16
hisi_io_guard_request_queue_list:
	.xword	hisi_io_guard_request_queue_list
	.xword	hisi_io_guard_request_queue_list
	.type	hisi_ufs_blk_tagset_ops, %object
	.size	hisi_ufs_blk_tagset_ops, 32
hisi_ufs_blk_tagset_ops:
	.xword	ufs_tagset_init_tags
	.xword	ufs_tagset_free_tags
	.xword	ufs_tagset_all_tag_busy_iter
	.xword	hisi_ufs_blk_queue_ops
	.type	hisi_ufs_blk_queue_ops, %object
	.size	hisi_ufs_blk_queue_ops, 216
hisi_ufs_blk_queue_ops:
	.word	1
	.zero	4
	.xword	ufs_mq_iosched_init
	.xword	ufs_mq_iosched_deinit
	.xword	ufs_mq_req_alloc_prep
	.xword	ufs_mq_req_init
	.xword	ufs_mq_req_complete
	.xword	ufs_mq_req_deinit
	.xword	ufs_mq_req_insert
	.xword	ufs_mq_req_requeue
	.xword	ufs_mq_req_timeout_handler
	.xword	ufs_mq_ctx_put
	.xword	ufs_mq_hctx_get_by_req
	.xword	ufs_mq_hctx_free_in_ctx_map
	.xword	ufs_mq_tag_get
	.xword	ufs_mq_tag_put
	.xword	ufs_mq_tag_update_depth
	.xword	ufs_mq_tag_busy_iter
	.xword	ufs_mq_tag_wakeup_all
	.xword	ufs_mq_tag_sysfs_show
	.xword	ufs_mq_exec_queue
	.xword	ufs_mq_run_hw_queue
	.xword	ufs_mq_run_delay_queue
	.xword	ufs_mq_run_requeue
	.xword	ufs_mq_poll_enable
	.xword	ufs_mq_status_dump
	.xword	ufs_mq_dump_request
	.xword	hisi_ufs_mq
	.type	hisi_ufs_mq, %object
	.size	hisi_ufs_mq, 8
hisi_ufs_mq:
	.xword	hisi_ufs_mq_async_io_fifo_sched
	.type	hisi_ufs_mq_async_io_fifo_sched, %object
	.size	hisi_ufs_mq_async_io_fifo_sched, 56
hisi_ufs_mq_async_io_fifo_sched:
	.word	0
	.zero	4
	.xword	ufs_mq_async_sched_fifo_init
	.xword	ufs_mq_async_sched_fifo_insert
	.xword	ufs_mq_async_sched_fifo_seek
	.xword	ufs_mq_async_sched_fifo_requeue
	.xword	ufs_mq_async_sched_fifo_attempt_merge_bio
	.xword	ufs_mq_async_sched_fifo_is_empty
	.section	___kcrctab+blk_mq_tagset_ufs_mq_iosched_enable,"a",%progbits
	.align	3
	.type	__kcrctab_blk_mq_tagset_ufs_mq_iosched_enable, %object
	.size	__kcrctab_blk_mq_tagset_ufs_mq_iosched_enable, 8
__kcrctab_blk_mq_tagset_ufs_mq_iosched_enable:
	.xword	__crc_blk_mq_tagset_ufs_mq_iosched_enable
	.section	.rodata.str1.8,"aMS",%progbits,1
	.align	3
.LC0:
	.string	"\0013[BLK-IO]<%s> total_tags_used_count = %d total_reserved_tags_used_count = %d total_high_tags_used_count = %d \n"
.LC1:
	.string	"\0013[BLK-IO]<%s> high_prio_sync_io_inflight_count = %d sync_io_inflight_count = %d async_io_inflight_count = %d \n"
.LC2:
	.string	"\0013[BLK-IO]high_prio_sync_dispatch_list: \n"
	.zero	6
.LC3:
	.string	"\0013[BLK-IO]sync_dispatch_list: \n"
.LC4:
	.string	"\0013[BLK-IO]async_fifo_list: \n"
	.zero	3
.LC5:
	.string	"nr_tags=%u, reserved_tags=%u, high_prio_tags=%u, bits_per_word=%u\n"
	.zero	5
.LC6:
	.string	"nr_free=%u, nr_reserved=%u nr_high_prio=%u \n"
	.zero	3
.LC7:
	.string	"active_queues=%u\n"
	.zero	6
.LC8:
	.string	"\0013[BLK-IO]%s: mq_ctx_put_fn failed. err = %d \r\n"
.LC9:
	.string	"&(&sched_ds->sync_dispatch_list_lock)->rlock"
	.zero	3
.LC10:
	.string	"&(&sched_ds->async_dispatch_io_lock)->rlock"
	.zero	4
.LC11:
	.string	"sync_io_dispatch"
	.zero	7
.LC12:
	.string	"async_io_dispatch"
	.zero	6
.LC13:
	.string	"io_guard"
	.zero	7
.LC14:
	.string	"\0013[BLK-IO]blk-mq: alloc tags failed\n"
	.zero	3
.LC15:
	.string	"\0013[BLK-IO]depth = %d, reserved = %d, prio = %d \r\n"
	.zero	6
.LC16:
	.string	"\0013[BLK-IO]%s: error nomem\n"
	.bss
	.align	3
.LANCHOR0 = . + 0
	.type	hisi_blk_mq_sync_dispatch_workqueue, %object
	.size	hisi_blk_mq_sync_dispatch_workqueue, 8
hisi_blk_mq_sync_dispatch_workqueue:
	.zero	8
	.type	hisi_blk_mq_async_dispatch_workqueue, %object
	.size	hisi_blk_mq_async_dispatch_workqueue, 8
hisi_blk_mq_async_dispatch_workqueue:
	.zero	8
	.type	__key.39841, %object
	.size	__key.39841, 0
__key.39841:
	.type	__key.39842, %object
	.size	__key.39842, 0
__key.39842:
	.type	hisi_blk_io_guard_workqueue, %object
	.size	hisi_blk_io_guard_workqueue, 8
hisi_blk_io_guard_workqueue:
	.zero	8
	.type	hisi_io_guard_work, %object
	.size	hisi_io_guard_work, 96
hisi_io_guard_work:
	.zero	96
	.section	___ksymtab+blk_mq_tagset_ufs_mq_iosched_enable,"a",%progbits
	.align	3
	.type	__ksymtab_blk_mq_tagset_ufs_mq_iosched_enable, %object
	.size	__ksymtab_blk_mq_tagset_ufs_mq_iosched_enable, 16
__ksymtab_blk_mq_tagset_ufs_mq_iosched_enable:
	.xword	blk_mq_tagset_ufs_mq_iosched_enable
	.xword	__kstrtab_blk_mq_tagset_ufs_mq_iosched_enable
	.weak	__crc_blk_mq_tagset_ufs_mq_iosched_enable
	.text
.Letext0:
	.file 22 "/mnt/disk/jenkins/ci/workspace/chipset_patch_970_docker/opensource/component_code/vendor/huawei/extra/build/build_script/kirin_kernel_release/kernel/include/uapi/asm-generic/int-ll64.h"
	.file 23 "/mnt/disk/jenkins/ci/workspace/chipset_patch_970_docker/opensource/component_code/vendor/huawei/extra/build/build_script/kirin_kernel_release/kernel/include/asm-generic/int-ll64.h"
	.file 24 "/mnt/disk/jenkins/ci/workspace/chipset_patch_970_docker/opensource/component_code/vendor/huawei/extra/build/build_script/kirin_kernel_release/kernel/include/uapi/asm-generic/posix_types.h"
	.file 25 "/mnt/disk/jenkins/ci/workspace/chipset_patch_970_docker/opensource/component_code/vendor/huawei/extra/build/build_script/kirin_kernel_release/kernel/include/linux/export.h"
	.file 26 "/mnt/disk/jenkins/ci/workspace/chipset_patch_970_docker/opensource/component_code/vendor/huawei/extra/build/build_script/kirin_kernel_release/kernel/include/linux/types.h"
	.file 27 "/mnt/disk/jenkins/ci/workspace/chipset_patch_970_docker/opensource/component_code/vendor/huawei/extra/build/build_script/kirin_kernel_release/kernel/include/linux/restart_block.h"
	.file 28 "/mnt/disk/jenkins/ci/workspace/chipset_patch_970_docker/opensource/component_code/vendor/huawei/extra/build/build_script/kirin_kernel_release/kernel/include/uapi/linux/time.h"
	.file 29 "/mnt/disk/jenkins/ci/workspace/chipset_patch_970_docker/opensource/component_code/vendor/huawei/extra/build/build_script/kirin_kernel_release/kernel/arch/arm64/include/asm/compat.h"
	.file 30 "/mnt/disk/jenkins/ci/workspace/chipset_patch_970_docker/opensource/component_code/vendor/huawei/extra/build/build_script/kirin_kernel_release/kernel/include/uapi/asm-generic/poll.h"
	.file 31 "/mnt/disk/jenkins/ci/workspace/chipset_patch_970_docker/opensource/component_code/vendor/huawei/extra/build/build_script/kirin_kernel_release/kernel/arch/arm64/include/asm/thread_info.h"
	.file 32 "/mnt/disk/jenkins/ci/workspace/chipset_patch_970_docker/opensource/component_code/vendor/huawei/extra/build/build_script/kirin_kernel_release/kernel/arch/arm64/include/uapi/asm/ptrace.h"
	.file 33 "/mnt/disk/jenkins/ci/workspace/chipset_patch_970_docker/opensource/component_code/vendor/huawei/extra/build/build_script/kirin_kernel_release/kernel/arch/arm64/include/asm/spinlock_types.h"
	.file 34 "/mnt/disk/jenkins/ci/workspace/chipset_patch_970_docker/opensource/component_code/vendor/huawei/extra/build/build_script/kirin_kernel_release/kernel/include/linux/spinlock_types.h"
	.file 35 "/mnt/disk/jenkins/ci/workspace/chipset_patch_970_docker/opensource/component_code/vendor/huawei/extra/build/build_script/kirin_kernel_release/kernel/include/linux/rwlock_types.h"
	.file 36 "/mnt/disk/jenkins/ci/workspace/chipset_patch_970_docker/opensource/component_code/vendor/huawei/extra/build/build_script/kirin_kernel_release/kernel/arch/arm64/include/asm/fpsimd.h"
	.file 37 "/mnt/disk/jenkins/ci/workspace/chipset_patch_970_docker/opensource/component_code/vendor/huawei/extra/build/build_script/kirin_kernel_release/kernel/include/linux/jump_label.h"
	.file 38 "/mnt/disk/jenkins/ci/workspace/chipset_patch_970_docker/opensource/component_code/vendor/huawei/extra/build/build_script/kirin_kernel_release/kernel/include/asm-generic/atomic-long.h"
	.file 39 "/mnt/disk/jenkins/ci/workspace/chipset_patch_970_docker/opensource/component_code/vendor/huawei/extra/build/build_script/kirin_kernel_release/kernel/arch/arm64/include/asm/processor.h"
	.file 40 "/mnt/disk/jenkins/ci/workspace/chipset_patch_970_docker/opensource/component_code/vendor/huawei/extra/build/build_script/kirin_kernel_release/kernel/include/linux/wait.h"
	.file 41 "/mnt/disk/jenkins/ci/workspace/chipset_patch_970_docker/opensource/component_code/vendor/huawei/extra/build/build_script/kirin_kernel_release/kernel/include/linux/seqlock.h"
	.file 42 "/mnt/disk/jenkins/ci/workspace/chipset_patch_970_docker/opensource/component_code/vendor/huawei/extra/build/build_script/kirin_kernel_release/kernel/include/linux/nodemask.h"
	.file 43 "/mnt/disk/jenkins/ci/workspace/chipset_patch_970_docker/opensource/component_code/vendor/huawei/extra/build/build_script/kirin_kernel_release/kernel/include/linux/cpumask.h"
	.file 44 "/mnt/disk/jenkins/ci/workspace/chipset_patch_970_docker/opensource/component_code/vendor/huawei/extra/build/build_script/kirin_kernel_release/kernel/include/linux/completion.h"
	.file 45 "/mnt/disk/jenkins/ci/workspace/chipset_patch_970_docker/opensource/component_code/vendor/huawei/extra/build/build_script/kirin_kernel_release/kernel/include/linux/time64.h"
	.file 46 "/mnt/disk/jenkins/ci/workspace/chipset_patch_970_docker/opensource/component_code/vendor/huawei/extra/build/build_script/kirin_kernel_release/kernel/include/linux/rbtree.h"
	.file 47 "/mnt/disk/jenkins/ci/workspace/chipset_patch_970_docker/opensource/component_code/vendor/huawei/extra/build/build_script/kirin_kernel_release/kernel/include/linux/osq_lock.h"
	.file 48 "/mnt/disk/jenkins/ci/workspace/chipset_patch_970_docker/opensource/component_code/vendor/huawei/extra/build/build_script/kirin_kernel_release/kernel/include/linux/rwsem.h"
	.file 49 "/mnt/disk/jenkins/ci/workspace/chipset_patch_970_docker/opensource/component_code/vendor/huawei/extra/build/build_script/kirin_kernel_release/kernel/include/linux/mm_types.h"
	.file 50 "/mnt/disk/jenkins/ci/workspace/chipset_patch_970_docker/opensource/component_code/vendor/huawei/extra/build/build_script/kirin_kernel_release/kernel/include/linux/lockdep.h"
	.file 51 "/mnt/disk/jenkins/ci/workspace/chipset_patch_970_docker/opensource/component_code/vendor/huawei/extra/build/build_script/kirin_kernel_release/kernel/include/linux/uprobes.h"
	.file 52 "/mnt/disk/jenkins/ci/workspace/chipset_patch_970_docker/opensource/component_code/vendor/huawei/extra/build/build_script/kirin_kernel_release/kernel/include/linux/timer.h"
	.file 53 "/mnt/disk/jenkins/ci/workspace/chipset_patch_970_docker/opensource/component_code/vendor/huawei/extra/build/build_script/kirin_kernel_release/kernel/include/linux/uidgid.h"
	.file 54 "/mnt/disk/jenkins/ci/workspace/chipset_patch_970_docker/opensource/component_code/vendor/huawei/extra/build/build_script/kirin_kernel_release/kernel/include/linux/sysctl.h"
	.file 55 "/mnt/disk/jenkins/ci/workspace/chipset_patch_970_docker/opensource/component_code/vendor/huawei/extra/build/build_script/kirin_kernel_release/kernel/include/linux/stddef.h"
	.file 56 "/mnt/disk/jenkins/ci/workspace/chipset_patch_970_docker/opensource/component_code/vendor/huawei/extra/build/build_script/kirin_kernel_release/kernel/arch/arm64/include/asm/pgtable-types.h"
	.file 57 "/mnt/disk/jenkins/ci/workspace/chipset_patch_970_docker/opensource/component_code/vendor/huawei/extra/build/build_script/kirin_kernel_release/kernel/arch/arm64/include/asm/page.h"
	.file 58 "/mnt/disk/jenkins/ci/workspace/chipset_patch_970_docker/opensource/component_code/vendor/huawei/extra/build/build_script/kirin_kernel_release/kernel/include/linux/pfn.h"
	.file 59 "/mnt/disk/jenkins/ci/workspace/chipset_patch_970_docker/opensource/component_code/vendor/huawei/extra/build/build_script/kirin_kernel_release/kernel/include/linux/llist.h"
	.file 60 "/mnt/disk/jenkins/ci/workspace/chipset_patch_970_docker/opensource/component_code/vendor/huawei/extra/build/build_script/kirin_kernel_release/kernel/include/linux/smp.h"
	.file 61 "/mnt/disk/jenkins/ci/workspace/chipset_patch_970_docker/opensource/component_code/vendor/huawei/extra/build/build_script/kirin_kernel_release/kernel/arch/arm64/include/asm/smp.h"
	.file 62 "/mnt/disk/jenkins/ci/workspace/chipset_patch_970_docker/opensource/component_code/vendor/huawei/extra/build/build_script/kirin_kernel_release/kernel/arch/arm64/include/asm/mmu.h"
	.file 63 "/mnt/disk/jenkins/ci/workspace/chipset_patch_970_docker/opensource/component_code/vendor/huawei/extra/build/build_script/kirin_kernel_release/kernel/include/linux/fs.h"
	.file 64 "/mnt/disk/jenkins/ci/workspace/chipset_patch_970_docker/opensource/component_code/vendor/huawei/extra/build/build_script/kirin_kernel_release/kernel/include/linux/rmap.h"
	.file 65 "/mnt/disk/jenkins/ci/workspace/chipset_patch_970_docker/opensource/component_code/vendor/huawei/extra/build/build_script/kirin_kernel_release/kernel/include/linux/mm.h"
	.file 66 "/mnt/disk/jenkins/ci/workspace/chipset_patch_970_docker/opensource/component_code/vendor/huawei/extra/build/build_script/kirin_kernel_release/kernel/include/linux/user_namespace.h"
	.file 67 "/mnt/disk/jenkins/ci/workspace/chipset_patch_970_docker/opensource/component_code/vendor/huawei/extra/build/build_script/kirin_kernel_release/kernel/include/linux/mmzone.h"
	.file 68 "/mnt/disk/jenkins/ci/workspace/chipset_patch_970_docker/opensource/component_code/vendor/huawei/extra/build/build_script/kirin_kernel_release/kernel/include/linux/page_ext.h"
	.file 69 "/mnt/disk/jenkins/ci/workspace/chipset_patch_970_docker/opensource/component_code/vendor/huawei/extra/build/build_script/kirin_kernel_release/kernel/include/linux/mutex.h"
	.file 70 "/mnt/disk/jenkins/ci/workspace/chipset_patch_970_docker/opensource/component_code/vendor/huawei/extra/build/build_script/kirin_kernel_release/kernel/include/linux/notifier.h"
	.file 71 "/mnt/disk/jenkins/ci/workspace/chipset_patch_970_docker/opensource/component_code/vendor/huawei/extra/build/build_script/kirin_kernel_release/kernel/include/linux/percpu-refcount.h"
	.file 72 "/mnt/disk/jenkins/ci/workspace/chipset_patch_970_docker/opensource/component_code/vendor/huawei/extra/build/build_script/kirin_kernel_release/kernel/include/linux/shrinker.h"
	.file 73 "/mnt/disk/jenkins/ci/workspace/chipset_patch_970_docker/opensource/component_code/vendor/huawei/extra/build/build_script/kirin_kernel_release/kernel/include/uapi/linux/resource.h"
	.file 74 "/mnt/disk/jenkins/ci/workspace/chipset_patch_970_docker/opensource/component_code/vendor/huawei/extra/build/build_script/kirin_kernel_release/kernel/include/linux/tracepoint-defs.h"
	.file 75 "/mnt/disk/jenkins/ci/workspace/chipset_patch_970_docker/opensource/component_code/vendor/huawei/extra/build/build_script/kirin_kernel_release/kernel/include/linux/vmstat.h"
	.file 76 "/mnt/disk/jenkins/ci/workspace/chipset_patch_970_docker/opensource/component_code/vendor/huawei/extra/build/build_script/kirin_kernel_release/kernel/include/linux/capability.h"
	.file 77 "/mnt/disk/jenkins/ci/workspace/chipset_patch_970_docker/opensource/component_code/vendor/huawei/extra/build/build_script/kirin_kernel_release/kernel/include/linux/plist.h"
	.file 78 "/mnt/disk/jenkins/ci/workspace/chipset_patch_970_docker/opensource/component_code/vendor/huawei/extra/build/build_script/kirin_kernel_release/kernel/include/asm-generic/cputime_jiffies.h"
	.file 79 "/mnt/disk/jenkins/ci/workspace/chipset_patch_970_docker/opensource/component_code/vendor/huawei/extra/build/build_script/kirin_kernel_release/kernel/include/uapi/asm-generic/signal.h"
	.file 80 "/mnt/disk/jenkins/ci/workspace/chipset_patch_970_docker/opensource/component_code/vendor/huawei/extra/build/build_script/kirin_kernel_release/kernel/include/uapi/asm-generic/signal-defs.h"
	.file 81 "/mnt/disk/jenkins/ci/workspace/chipset_patch_970_docker/opensource/component_code/vendor/huawei/extra/build/build_script/kirin_kernel_release/kernel/include/uapi/asm-generic/siginfo.h"
	.file 82 "/mnt/disk/jenkins/ci/workspace/chipset_patch_970_docker/opensource/component_code/vendor/huawei/extra/build/build_script/kirin_kernel_release/kernel/include/linux/signal.h"
	.file 83 "/mnt/disk/jenkins/ci/workspace/chipset_patch_970_docker/opensource/component_code/vendor/huawei/extra/build/build_script/kirin_kernel_release/kernel/include/linux/pid.h"
	.file 84 "/mnt/disk/jenkins/ci/workspace/chipset_patch_970_docker/opensource/component_code/vendor/huawei/extra/build/build_script/kirin_kernel_release/kernel/include/linux/seccomp.h"
	.file 85 "/mnt/disk/jenkins/ci/workspace/chipset_patch_970_docker/opensource/component_code/vendor/huawei/extra/build/build_script/kirin_kernel_release/kernel/include/linux/timerqueue.h"
	.file 86 "/mnt/disk/jenkins/ci/workspace/chipset_patch_970_docker/opensource/component_code/vendor/huawei/extra/build/build_script/kirin_kernel_release/kernel/include/linux/hrtimer.h"
	.file 87 "/mnt/disk/jenkins/ci/workspace/chipset_patch_970_docker/opensource/component_code/vendor/huawei/extra/build/build_script/kirin_kernel_release/kernel/include/linux/task_io_accounting.h"
	.file 88 "/mnt/disk/jenkins/ci/workspace/chipset_patch_970_docker/opensource/component_code/vendor/huawei/extra/build/build_script/kirin_kernel_release/kernel/include/linux/assoc_array.h"
	.file 89 "/mnt/disk/jenkins/ci/workspace/chipset_patch_970_docker/opensource/component_code/vendor/huawei/extra/build/build_script/kirin_kernel_release/kernel/include/linux/key.h"
	.file 90 "/mnt/disk/jenkins/ci/workspace/chipset_patch_970_docker/opensource/component_code/vendor/huawei/extra/build/build_script/kirin_kernel_release/kernel/include/linux/cred.h"
	.file 91 "/mnt/disk/jenkins/ci/workspace/chipset_patch_970_docker/opensource/component_code/vendor/huawei/extra/build/build_script/kirin_kernel_release/kernel/include/linux/idr.h"
	.file 92 "/mnt/disk/jenkins/ci/workspace/chipset_patch_970_docker/opensource/component_code/vendor/huawei/extra/build/build_script/kirin_kernel_release/kernel/include/linux/rcu_sync.h"
	.file 93 "/mnt/disk/jenkins/ci/workspace/chipset_patch_970_docker/opensource/component_code/vendor/huawei/extra/build/build_script/kirin_kernel_release/kernel/include/linux/percpu-rwsem.h"
	.file 94 "/mnt/disk/jenkins/ci/workspace/chipset_patch_970_docker/opensource/component_code/vendor/huawei/extra/build/build_script/kirin_kernel_release/kernel/include/linux/bpf-cgroup.h"
	.file 95 "/mnt/disk/jenkins/ci/workspace/chipset_patch_970_docker/opensource/component_code/vendor/huawei/extra/build/build_script/kirin_kernel_release/kernel/include/linux/cgroup-defs.h"
	.file 96 "/mnt/disk/jenkins/ci/workspace/chipset_patch_970_docker/opensource/component_code/vendor/huawei/extra/build/build_script/kirin_kernel_release/kernel/include/linux/kernfs.h"
	.file 97 "/mnt/disk/jenkins/ci/workspace/chipset_patch_970_docker/opensource/component_code/vendor/huawei/extra/build/build_script/kirin_kernel_release/kernel/include/linux/seq_file.h"
	.file 98 "/mnt/disk/jenkins/ci/workspace/chipset_patch_970_docker/opensource/component_code/vendor/huawei/extra/build/build_script/kirin_kernel_release/kernel/include/uapi/linux/taskstats.h"
	.file 99 "/mnt/disk/jenkins/ci/workspace/chipset_patch_970_docker/opensource/component_code/vendor/huawei/extra/build/build_script/kirin_kernel_release/kernel/include/linux/nsproxy.h"
	.file 100 "/mnt/disk/jenkins/ci/workspace/chipset_patch_970_docker/opensource/component_code/vendor/huawei/extra/build/build_script/kirin_kernel_release/kernel/include/linux/swap.h"
	.file 101 "/mnt/disk/jenkins/ci/workspace/chipset_patch_970_docker/opensource/component_code/vendor/huawei/extra/build/build_script/kirin_kernel_release/kernel/include/linux/backing-dev-defs.h"
	.file 102 "/mnt/disk/jenkins/ci/workspace/chipset_patch_970_docker/opensource/component_code/vendor/huawei/extra/build/build_script/kirin_kernel_release/kernel/include/linux/iocontext.h"
	.file 103 "/mnt/disk/jenkins/ci/workspace/chipset_patch_970_docker/opensource/component_code/vendor/huawei/extra/build/build_script/kirin_kernel_release/kernel/include/linux/compat.h"
	.file 104 "/mnt/disk/jenkins/ci/workspace/chipset_patch_970_docker/opensource/component_code/vendor/huawei/extra/build/build_script/kirin_kernel_release/kernel/include/linux/list_bl.h"
	.file 105 "/mnt/disk/jenkins/ci/workspace/chipset_patch_970_docker/opensource/component_code/vendor/huawei/extra/build/build_script/kirin_kernel_release/kernel/include/linux/lockref.h"
	.file 106 "/mnt/disk/jenkins/ci/workspace/chipset_patch_970_docker/opensource/component_code/vendor/huawei/extra/build/build_script/kirin_kernel_release/kernel/include/linux/dcache.h"
	.file 107 "/mnt/disk/jenkins/ci/workspace/chipset_patch_970_docker/opensource/component_code/vendor/huawei/extra/build/build_script/kirin_kernel_release/kernel/include/linux/path.h"
	.file 108 "/mnt/disk/jenkins/ci/workspace/chipset_patch_970_docker/opensource/component_code/vendor/huawei/extra/build/build_script/kirin_kernel_release/kernel/include/linux/stat.h"
	.file 109 "/mnt/disk/jenkins/ci/workspace/chipset_patch_970_docker/opensource/component_code/vendor/huawei/extra/build/build_script/kirin_kernel_release/kernel/include/linux/list_lru.h"
	.file 110 "/mnt/disk/jenkins/ci/workspace/chipset_patch_970_docker/opensource/component_code/vendor/huawei/extra/build/build_script/kirin_kernel_release/kernel/include/linux/radix-tree.h"
	.file 111 "/mnt/disk/jenkins/ci/workspace/chipset_patch_970_docker/opensource/component_code/vendor/huawei/extra/build/build_script/kirin_kernel_release/kernel/include/uapi/linux/fiemap.h"
	.file 112 "/mnt/disk/jenkins/ci/workspace/chipset_patch_970_docker/opensource/component_code/vendor/huawei/extra/build/build_script/kirin_kernel_release/kernel/include/linux/migrate_mode.h"
	.file 113 "/mnt/disk/jenkins/ci/workspace/chipset_patch_970_docker/opensource/component_code/vendor/huawei/extra/build/build_script/kirin_kernel_release/kernel/include/linux/bvec.h"
	.file 114 "/mnt/disk/jenkins/ci/workspace/chipset_patch_970_docker/opensource/component_code/vendor/huawei/extra/build/build_script/kirin_kernel_release/kernel/include/linux/delayed_call.h"
	.file 115 "/mnt/disk/jenkins/ci/workspace/chipset_patch_970_docker/opensource/component_code/vendor/huawei/extra/build/build_script/kirin_kernel_release/kernel/include/linux/percpu_counter.h"
	.file 116 "/mnt/disk/jenkins/ci/workspace/chipset_patch_970_docker/opensource/component_code/vendor/huawei/extra/build/build_script/kirin_kernel_release/kernel/include/linux/quota.h"
	.file 117 "/mnt/disk/jenkins/ci/workspace/chipset_patch_970_docker/opensource/component_code/vendor/huawei/extra/build/build_script/kirin_kernel_release/kernel/include/linux/projid.h"
	.file 118 "/mnt/disk/jenkins/ci/workspace/chipset_patch_970_docker/opensource/component_code/vendor/huawei/extra/build/build_script/kirin_kernel_release/kernel/include/linux/writeback.h"
	.file 119 "/mnt/disk/jenkins/ci/workspace/chipset_patch_970_docker/opensource/component_code/vendor/huawei/extra/build/build_script/kirin_kernel_release/kernel/include/linux/uio.h"
	.file 120 "/mnt/disk/jenkins/ci/workspace/chipset_patch_970_docker/opensource/component_code/vendor/huawei/extra/build/build_script/kirin_kernel_release/kernel/include/linux/genhd.h"
	.file 121 "/mnt/disk/jenkins/ci/workspace/chipset_patch_970_docker/opensource/component_code/vendor/huawei/extra/build/build_script/kirin_kernel_release/kernel/include/linux/nfs_fs_i.h"
	.file 122 "/mnt/disk/jenkins/ci/workspace/chipset_patch_970_docker/opensource/component_code/vendor/huawei/extra/build/build_script/kirin_kernel_release/kernel/include/linux/poll.h"
	.file 123 "/mnt/disk/jenkins/ci/workspace/chipset_patch_970_docker/opensource/component_code/vendor/huawei/extra/build/build_script/kirin_kernel_release/kernel/include/linux/cgroup.h"
	.file 124 "/mnt/disk/jenkins/ci/workspace/chipset_patch_970_docker/opensource/component_code/vendor/huawei/extra/build/build_script/kirin_kernel_release/kernel/include/linux/ns_common.h"
	.file 125 "/mnt/disk/jenkins/ci/workspace/chipset_patch_970_docker/opensource/component_code/vendor/huawei/extra/build/build_script/kirin_kernel_release/kernel/include/linux/kref.h"
	.file 126 "/mnt/disk/jenkins/ci/workspace/chipset_patch_970_docker/opensource/component_code/vendor/huawei/extra/build/build_script/kirin_kernel_release/kernel/include/linux/flex_proportions.h"
	.file 127 "/mnt/disk/jenkins/ci/workspace/chipset_patch_970_docker/opensource/component_code/vendor/huawei/extra/build/build_script/kirin_kernel_release/kernel/include/linux/device.h"
	.file 128 "/mnt/disk/jenkins/ci/workspace/chipset_patch_970_docker/opensource/component_code/vendor/huawei/extra/build/build_script/kirin_kernel_release/kernel/include/linux/kobject_ns.h"
	.file 129 "/mnt/disk/jenkins/ci/workspace/chipset_patch_970_docker/opensource/component_code/vendor/huawei/extra/build/build_script/kirin_kernel_release/kernel/include/linux/sysfs.h"
	.file 130 "/mnt/disk/jenkins/ci/workspace/chipset_patch_970_docker/opensource/component_code/vendor/huawei/extra/build/build_script/kirin_kernel_release/kernel/include/linux/kobject.h"
	.file 131 "/mnt/disk/jenkins/ci/workspace/chipset_patch_970_docker/opensource/component_code/vendor/huawei/extra/build/build_script/kirin_kernel_release/kernel/include/linux/klist.h"
	.file 132 "/mnt/disk/jenkins/ci/workspace/chipset_patch_970_docker/opensource/component_code/vendor/huawei/extra/build/build_script/kirin_kernel_release/kernel/include/linux/pinctrl/devinfo.h"
	.file 133 "/mnt/disk/jenkins/ci/workspace/chipset_patch_970_docker/opensource/component_code/vendor/huawei/extra/build/build_script/kirin_kernel_release/kernel/include/linux/pm.h"
	.file 134 "/mnt/disk/jenkins/ci/workspace/chipset_patch_970_docker/opensource/component_code/vendor/huawei/extra/build/build_script/kirin_kernel_release/kernel/include/linux/pm_wakeup.h"
	.file 135 "/mnt/disk/jenkins/ci/workspace/chipset_patch_970_docker/opensource/component_code/vendor/huawei/extra/build/build_script/kirin_kernel_release/kernel/arch/arm64/include/asm/device.h"
	.file 136 "/mnt/disk/jenkins/ci/workspace/chipset_patch_970_docker/opensource/component_code/vendor/huawei/extra/build/build_script/kirin_kernel_release/kernel/include/linux/mempool.h"
	.file 137 "/mnt/disk/jenkins/ci/workspace/chipset_patch_970_docker/opensource/component_code/vendor/huawei/extra/build/build_script/kirin_kernel_release/kernel/include/linux/bsg.h"
	.file 138 "/mnt/disk/jenkins/ci/workspace/chipset_patch_970_docker/opensource/component_code/vendor/huawei/extra/build/build_script/kirin_kernel_release/kernel/include/linux/elevator.h"
	.file 139 "/mnt/disk/jenkins/ci/workspace/chipset_patch_970_docker/opensource/component_code/vendor/huawei/extra/build/build_script/kirin_kernel_release/kernel/include/linux/blk-mq.h"
	.file 140 "/mnt/disk/jenkins/ci/workspace/chipset_patch_970_docker/opensource/component_code/vendor/huawei/extra/build/build_script/kirin_kernel_release/kernel/block/hisi-blk.h"
	.file 141 "/mnt/disk/jenkins/ci/workspace/chipset_patch_970_docker/opensource/component_code/vendor/huawei/extra/build/build_script/kirin_kernel_release/kernel/block/blk-mq-tag.h"
	.file 142 "/mnt/disk/jenkins/ci/workspace/chipset_patch_970_docker/opensource/component_code/vendor/huawei/extra/build/build_script/kirin_kernel_release/kernel/include/linux/interrupt.h"
	.file 143 "/mnt/disk/jenkins/ci/workspace/chipset_patch_970_docker/opensource/component_code/vendor/huawei/extra/build/build_script/kirin_kernel_release/kernel/include/uapi/linux/uio.h"
	.file 144 "/mnt/disk/jenkins/ci/workspace/chipset_patch_970_docker/opensource/component_code/vendor/huawei/extra/build/build_script/kirin_kernel_release/kernel/include/asm-generic/bitops/builtin-__fls.h"
	.file 145 "/mnt/disk/jenkins/ci/workspace/chipset_patch_970_docker/opensource/component_code/vendor/huawei/extra/build/build_script/kirin_kernel_release/kernel/include/asm-generic/bitops/fls64.h"
	.file 146 "/mnt/disk/jenkins/ci/workspace/chipset_patch_970_docker/opensource/component_code/vendor/huawei/extra/build/build_script/kirin_kernel_release/kernel/include/linux/thread_info.h"
	.file 147 "/mnt/disk/jenkins/ci/workspace/chipset_patch_970_docker/opensource/component_code/vendor/huawei/extra/build/build_script/kirin_kernel_release/kernel/include/linux/jiffies.h"
	.file 148 "/mnt/disk/jenkins/ci/workspace/chipset_patch_970_docker/opensource/component_code/vendor/huawei/extra/build/build_script/kirin_kernel_release/kernel/include/linux/log2.h"
	.file 149 "/mnt/disk/jenkins/ci/workspace/chipset_patch_970_docker/opensource/component_code/vendor/huawei/extra/build/build_script/kirin_kernel_release/kernel/include/asm-generic/getorder.h"
	.file 150 "/mnt/disk/jenkins/ci/workspace/chipset_patch_970_docker/opensource/component_code/vendor/huawei/extra/build/build_script/kirin_kernel_release/kernel/arch/arm64/include/asm/cmpxchg.h"
	.file 151 "/mnt/disk/jenkins/ci/workspace/chipset_patch_970_docker/opensource/component_code/vendor/huawei/extra/build/build_script/kirin_kernel_release/kernel/arch/arm64/include/asm/cachetype.h"
	.file 152 "/mnt/disk/jenkins/ci/workspace/chipset_patch_970_docker/opensource/component_code/vendor/huawei/extra/build/build_script/kirin_kernel_release/kernel/include/linux/printk.h"
	.file 153 "/mnt/disk/jenkins/ci/workspace/chipset_patch_970_docker/opensource/component_code/vendor/huawei/extra/build/build_script/kirin_kernel_release/kernel/include/linux/kernel.h"
	.file 154 "/mnt/disk/jenkins/ci/workspace/chipset_patch_970_docker/opensource/component_code/vendor/huawei/extra/build/build_script/kirin_kernel_release/kernel/arch/arm64/include/asm/stack_pointer.h"
	.file 155 "/mnt/disk/jenkins/ci/workspace/chipset_patch_970_docker/opensource/component_code/vendor/huawei/extra/build/build_script/kirin_kernel_release/kernel/arch/arm64/include/asm/hwcap.h"
	.file 156 "/mnt/disk/jenkins/ci/workspace/chipset_patch_970_docker/opensource/component_code/vendor/huawei/extra/build/build_script/kirin_kernel_release/kernel/arch/arm64/include/asm/cpufeature.h"
	.file 157 "/mnt/disk/jenkins/ci/workspace/chipset_patch_970_docker/opensource/component_code/vendor/huawei/extra/build/build_script/kirin_kernel_release/kernel/arch/arm64/include/asm/virt.h"
	.file 158 "/mnt/disk/jenkins/ci/workspace/chipset_patch_970_docker/opensource/component_code/vendor/huawei/extra/build/build_script/kirin_kernel_release/kernel/include/linux/highuid.h"
	.file 159 "/mnt/disk/jenkins/ci/workspace/chipset_patch_970_docker/opensource/component_code/vendor/huawei/extra/build/build_script/kirin_kernel_release/kernel/arch/arm64/include/asm/memory.h"
	.file 160 "/mnt/disk/jenkins/ci/workspace/chipset_patch_970_docker/opensource/component_code/vendor/huawei/extra/build/build_script/kirin_kernel_release/kernel/include/asm-generic/percpu.h"
	.file 161 "/mnt/disk/jenkins/ci/workspace/chipset_patch_970_docker/opensource/component_code/vendor/huawei/extra/build/build_script/kirin_kernel_release/kernel/include/linux/debug_locks.h"
	.file 162 "/mnt/disk/jenkins/ci/workspace/chipset_patch_970_docker/opensource/component_code/vendor/huawei/extra/build/build_script/kirin_kernel_release/kernel/include/asm-generic/pgtable.h"
	.file 163 "/mnt/disk/jenkins/ci/workspace/chipset_patch_970_docker/opensource/component_code/vendor/huawei/extra/build/build_script/kirin_kernel_release/kernel/arch/arm64/include/asm/irq.h"
	.file 164 "/mnt/disk/jenkins/ci/workspace/chipset_patch_970_docker/opensource/component_code/vendor/huawei/extra/build/build_script/kirin_kernel_release/kernel/arch/arm64/include/asm/hardirq.h"
	.file 165 "/mnt/disk/jenkins/ci/workspace/chipset_patch_970_docker/opensource/component_code/vendor/huawei/extra/build/build_script/kirin_kernel_release/kernel/include/trace/events/block.h"
	.file 166 "/mnt/disk/jenkins/ci/workspace/chipset_patch_970_docker/opensource/component_code/vendor/huawei/extra/build/build_script/kirin_kernel_release/kernel/include/linux/spinlock_api_smp.h"
	.file 167 "/mnt/disk/jenkins/ci/workspace/chipset_patch_970_docker/opensource/component_code/vendor/huawei/extra/build/build_script/kirin_kernel_release/kernel/include/asm-generic/bitops/find.h"
	.file 168 "/mnt/disk/jenkins/ci/workspace/chipset_patch_970_docker/opensource/component_code/vendor/huawei/extra/build/build_script/kirin_kernel_release/kernel/arch/arm64/include/asm/bitops.h"
	.file 169 "/mnt/disk/jenkins/ci/workspace/chipset_patch_970_docker/opensource/component_code/vendor/huawei/extra/build/build_script/kirin_kernel_release/kernel/include/linux/percpu.h"
	.file 170 "/mnt/disk/jenkins/ci/workspace/chipset_patch_970_docker/opensource/component_code/vendor/huawei/extra/build/build_script/kirin_kernel_release/kernel/include/linux/timekeeping.h"