	.cpu generic+fp+simd
	.file	"nf_ad_filter.c"
	.text
.Ltext0:
	.cfi_sections	.debug_frame
	.align	2
	.type	is_droplist.part.0, %function
is_droplist.part.0:
.LFB1575:
	.file 1 "/mnt/disk/jenkins/ci/workspace/chipset_patch_970_docker/opensource/component_code/vendor/huawei/extra/build/build_script/kirin_kernel_release/kernel/drivers/huawei_platform/net/hw_netfilter/nf_ad_filter.c"
	.loc 1 34 0
	.cfi_startproc
.LVL0:
	stp	x29, x30, [sp, -64]!
	.cfi_def_cfa_offset 64
	.cfi_offset 29, -64
	.cfi_offset 30, -56
	add	x29, sp, 0
	.cfi_def_cfa_register 29
	stp	x19, x20, [sp,16]
	.cfi_offset 19, -48
	.cfi_offset 20, -40
	adrp	x19, .LANCHOR0
	str	x23, [sp,48]
	add	x19, x19, :lo12:.LANCHOR0
	.cfi_offset 23, -16
	mov	x23, x0
	stp	x21, x22, [sp,32]
	.cfi_offset 21, -32
	.cfi_offset 22, -24
	add	x20, x19, 4096
	.loc 1 34 0
	sxtw	x22, w1
	mov	x21, x22
	add	x19, x19, 16
	add	x20, x20, 16
	b	.L4
.LVL1:
.L2:
	add	x19, x19, 32
	.loc 1 41 0 discriminator 1
	cmp	x19, x20
	beq	.L10
.L4:
	.loc 1 42 0
	ldr	x0, [x19]
	cbz	x0, .L2
	.loc 1 42 0 is_stmt 0 discriminator 1
	ldr	w1, [x19,8]
	cmp	w1, w21
	bne	.L2
	.loc 1 43 0 is_stmt 1
	mov	x1, x23
	mov	x2, x22
	bl	memcmp
.LVL2:
	cbnz	w0, .L2
.LBB303:
.LBB304:
	.file 2 "/mnt/disk/jenkins/ci/workspace/chipset_patch_970_docker/opensource/component_code/vendor/huawei/extra/build/build_script/kirin_kernel_release/kernel/include/linux/spinlock.h"
	.loc 2 352 0
	adrp	x0, .LANCHOR1
	add	x0, x0, :lo12:.LANCHOR1
	sub	x0, x0, #256
	bl	_raw_spin_unlock_bh
.LVL3:
.LBE304:
.LBE303:
	.loc 1 51 0
	ldr	x23, [sp,48]
	.cfi_remember_state
	.cfi_restore 23
.LVL4:
	.loc 1 45 0
	mov	w0, 1
	.loc 1 51 0
	ldp	x19, x20, [sp,16]
	.cfi_restore 20
	.cfi_restore 19
	ldp	x21, x22, [sp,32]
	.cfi_restore 22
	.cfi_restore 21
.LVL5:
	ldp	x29, x30, [sp], 64
	.cfi_restore 30
	.cfi_restore 29
	.cfi_def_cfa 31, 0
	ret
.LVL6:
.L10:
	.cfi_restore_state
.LBB305:
.LBB306:
	.loc 2 352 0
	adrp	x0, .LANCHOR1
	add	x0, x0, :lo12:.LANCHOR1
	sub	x0, x0, #256
	bl	_raw_spin_unlock_bh
.LVL7:
.LBE306:
.LBE305:
	.loc 1 51 0
	ldr	x23, [sp,48]
	.cfi_restore 23
.LVL8:
	.loc 1 50 0
	mov	w0, 0
	.loc 1 51 0
	ldp	x19, x20, [sp,16]
	.cfi_restore 19
	.cfi_restore 20
	ldp	x21, x22, [sp,32]
	.cfi_restore 21
	.cfi_restore 22
.LVL9:
	ldp	x29, x30, [sp], 64
	.cfi_restore 29
	.cfi_restore 30
	.cfi_def_cfa 31, 0
	ret
	.cfi_endproc
.LFE1575:
	.size	is_droplist.part.0, .-is_droplist.part.0
	.align	2
	.global	is_droplist
	.type	is_droplist, %function
is_droplist:
.LFB1557:
	.loc 1 35 0
	.cfi_startproc
.LVL10:
	stp	x29, x30, [sp, -48]!
	.cfi_def_cfa_offset 48
	.cfi_offset 29, -48
	.cfi_offset 30, -40
	add	x29, sp, 0
	.cfi_def_cfa_register 29
	str	x19, [sp,16]
	.cfi_offset 19, -32
	.loc 1 38 0
	cbz	x0, .L13
	mov	x19, x0
.LBB309:
.LBB310:
	.loc 2 307 0
	adrp	x0, .LANCHOR1
.LVL11:
	add	x0, x0, :lo12:.LANCHOR1
	str	x1, [x29,40]
	sub	x0, x0, #256
	bl	_raw_spin_lock_bh
.LVL12:
.LBE310:
.LBE309:
	ldr	x1, [x29,40]
.LVL13:
	mov	x0, x19
	bl	is_droplist.part.0
.LVL14:
	.loc 1 51 0
	ldr	x19, [sp,16]
	.cfi_remember_state
	.cfi_restore 19
.LVL15:
	uxtb	w0, w0
	ldp	x29, x30, [sp], 48
	.cfi_restore 30
	.cfi_restore 29
	.cfi_def_cfa 31, 0
	ret
.LVL16:
.L13:
	.cfi_restore_state
	ldr	x19, [sp,16]
	.cfi_restore 19
	.loc 1 39 0
	mov	w0, 0
.LVL17:
	.loc 1 51 0
	ldp	x29, x30, [sp], 48
	.cfi_restore 29
	.cfi_restore 30
	.cfi_def_cfa 31, 0
	ret
	.cfi_endproc
.LFE1557:
	.size	is_droplist, .-is_droplist
	.align	2
	.global	add_to_droplist
	.type	add_to_droplist, %function
add_to_droplist:
.LFB1558:
	.loc 1 54 0
	.cfi_startproc
.LVL18:
	stp	x29, x30, [sp, -64]!
	.cfi_def_cfa_offset 64
	.cfi_offset 29, -64
	.cfi_offset 30, -56
	add	x29, sp, 0
	.cfi_def_cfa_register 29
	stp	x19, x20, [sp,16]
	stp	x21, x22, [sp,32]
	stp	x23, x24, [sp,48]
	.cfi_offset 19, -48
	.cfi_offset 20, -40
	.cfi_offset 21, -32
	.cfi_offset 22, -24
	.cfi_offset 23, -16
	.cfi_offset 24, -8
	.loc 1 58 0
	cbz	x0, .L14
.LBB331:
.LBB332:
.LBB333:
.LBB334:
	.loc 2 307 0
	adrp	x21, .LANCHOR1
	mov	x19, x0
	add	x21, x21, :lo12:.LANCHOR1
	mov	w20, w1
	sub	x22, x21, #256
	mov	x0, x22
.LVL19:
	bl	_raw_spin_lock_bh
.LVL20:
.LBE334:
.LBE333:
	mov	x0, x19
	mov	w1, w20
	bl	is_droplist.part.0
.LVL21:
	uxtb	w0, w0
.LBE332:
.LBE331:
	.loc 1 60 0
	cbnz	w0, .L14
	.loc 1 62 0
	add	w0, w20, 1
.LBB335:
.LBB336:
	.file 3 "/mnt/disk/jenkins/ci/workspace/chipset_patch_970_docker/opensource/component_code/vendor/huawei/extra/build/build_script/kirin_kernel_release/kernel/include/linux/slab.h"
	.loc 3 500 0
	mov	w1, 32
	movk	w1, 0x208, lsl 16
	sxtw	x0, w0
	bl	__kmalloc
.LVL22:
	mov	x23, x0
.LBE336:
.LBE335:
	.loc 1 63 0
	cbz	x0, .L14
	.loc 1 65 0
	sxtw	x3, w20
	.loc 1 66 0
	mov	x1, x19
	mov	x2, x3
	.loc 1 71 0
	adrp	x19, .LANCHOR0
.LVL23:
	add	x19, x19, :lo12:.LANCHOR0
	.loc 1 65 0
	strb	wzr, [x0,x3]
	.loc 1 66 0
	bl	memcpy
.LVL24:
.LBB337:
.LBB338:
	.loc 2 307 0
	mov	x0, x22
	bl	_raw_spin_lock_bh
.LVL25:
.LBE338:
.LBE337:
	.loc 1 68 0
	ldr	w0, [x21,-232]
	.loc 1 71 0
	ubfiz	x1, x0, 5, 32
	.loc 1 68 0
	add	w0, w0, 1
	.loc 1 71 0
	add	x19, x19, x1
	.loc 1 68 0
	cmp	w0, 127
	csel	w0, w0, wzr, ls
	str	w0, [x21,-232]
	.loc 1 71 0
	ldr	x0, [x19,16]
	bl	kfree
.LVL26:
	.loc 1 72 0
	str	x23, [x19,16]
.LBB339:
.LBB340:
	.loc 2 352 0
	mov	x0, x22
.LBE340:
.LBE339:
	.loc 1 73 0
	str	w20, [x19,24]
.LBB342:
.LBB341:
	.loc 2 352 0
	bl	_raw_spin_unlock_bh
.LVL27:
.L14:
.LBE341:
.LBE342:
	.loc 1 75 0
	ldp	x19, x20, [sp,16]
	.cfi_restore 20
	.cfi_restore 19
.LVL28:
	ldp	x21, x22, [sp,32]
	.cfi_restore 22
	.cfi_restore 21
	ldp	x23, x24, [sp,48]
	.cfi_restore 24
	.cfi_restore 23
	ldp	x29, x30, [sp], 64
	.cfi_restore 30
	.cfi_restore 29
	.cfi_def_cfa 31, 0
	ret
	.cfi_endproc
.LFE1558:
	.size	add_to_droplist, .-add_to_droplist
	.align	2
	.global	add_url_to_node
	.type	add_url_to_node, %function
add_url_to_node:
.LFB1559:
	.loc 1 79 0
	.cfi_startproc
.LVL29:
	stp	x29, x30, [sp, -80]!
	.cfi_def_cfa_offset 80
	.cfi_offset 29, -80
	.cfi_offset 30, -72
	add	x29, sp, 0
	.cfi_def_cfa_register 29
	stp	x19, x20, [sp,16]
	stp	x21, x22, [sp,32]
	stp	x23, x24, [sp,48]
	str	x25, [sp,64]
	.cfi_offset 19, -64
	.cfi_offset 20, -56
	.cfi_offset 21, -48
	.cfi_offset 22, -40
	.cfi_offset 23, -32
	.cfi_offset 24, -24
	.cfi_offset 25, -16
	.loc 1 82 0
	cbz	x0, .L23
	cbz	x1, .L23
	.loc 1 81 0
	add	w20, w2, w2, lsr 31
	mov	x25, x1
	asr	w20, w20, 1
.LVL30:
.LBB343:
.LBB344:
	.loc 3 500 0
	mov	w1, 32
.LVL31:
.LBE344:
.LBE343:
	.loc 1 84 0
	add	w24, w20, 2
	mov	x23, x0
.LBB346:
.LBB345:
	.loc 3 500 0
	movk	w1, 0x208, lsl 16
	mov	w19, w2
	sxtw	x0, w24
.LVL32:
	bl	__kmalloc
.LVL33:
	mov	x22, x0
.LBE345:
.LBE346:
	.loc 1 85 0
	cbz	x0, .L23
.LBB347:
	.loc 1 89 0
	mov	x21, x23
.LBE347:
	.loc 1 87 0
	mov	w1, w19
	mov	w3, w24
	mov	x0, x25
	mov	x2, x22
	.loc 1 88 0
	sxtw	x24, w20
	.loc 1 87 0
	bl	hex_to_byte
.LVL34:
.LBB348:
	.loc 1 89 0
	ldr	x19, [x21,24]!
.LVL35:
.LBE348:
	.loc 1 88 0
	strb	wzr, [x22,x24]
	.loc 1 89 0 discriminator 1
	cmp	x19, x21
	bne	.L30
	b	.L28
.L29:
.LBB349:
	.loc 1 89 0 is_stmt 0 discriminator 2
	ldr	x19, [x19]
.LBE349:
	.loc 1 89 0 discriminator 1
	cmp	x19, x21
	beq	.L28
.L30:
	.loc 1 90 0 is_stmt 1
	ldr	w2, [x19,24]
	cmp	w2, w20
	bne	.L29
	.loc 1 91 0
	ldr	x0, [x19,16]
	mov	x1, x22
	mov	x2, x24
	bl	memcmp
.LVL36:
	cbnz	w0, .L29
	.loc 1 92 0
	adrp	x0, .LC0
	mov	x1, x25
	add	x0, x0, :lo12:.LC0
	bl	printk
.LVL37:
	.loc 1 93 0
	mov	x0, x22
	bl	kfree
.LVL38:
.L23:
	.loc 1 106 0
	ldp	x19, x20, [sp,16]
	.cfi_remember_state
	.cfi_restore 20
	.cfi_restore 19
.LVL39:
	ldp	x21, x22, [sp,32]
	.cfi_restore 22
	.cfi_restore 21
	ldp	x23, x24, [sp,48]
	.cfi_restore 24
	.cfi_restore 23
.LVL40:
	ldr	x25, [sp,64]
	.cfi_restore 25
.LVL41:
	ldp	x29, x30, [sp], 80
	.cfi_restore 30
	.cfi_restore 29
	.cfi_def_cfa 31, 0
	ret
.LVL42:
.L28:
	.cfi_restore_state
.LBB350:
.LBB351:
	.loc 3 495 0
	adrp	x0, kmalloc_caches+48
	mov	w1, 32
	movk	w1, 0x208, lsl 16
	mov	x2, 32
	ldr	x0, [x0,#:lo12:kmalloc_caches+48]
	bl	kmem_cache_alloc_trace
.LVL43:
.LBE351:
.LBE350:
	.loc 1 99 0
	cbz	x0, .L36
.LBB352:
.LBB353:
	.file 4 "/mnt/disk/jenkins/ci/workspace/chipset_patch_970_docker/opensource/component_code/vendor/huawei/extra/build/build_script/kirin_kernel_release/kernel/include/linux/list.h"
	.loc 4 63 0
	ldr	x1, [x23,24]
.LBE353:
.LBE352:
	.loc 1 103 0
	str	x22, [x0,16]
	.loc 1 104 0
	str	w20, [x0,24]
.LBB360:
.LBB359:
.LBB354:
.LBB355:
	.loc 4 42 0
	str	x0, [x1,8]
	.loc 4 43 0
	str	x1, [x0]
	.loc 4 44 0
	str	x21, [x0,8]
.LBB356:
.LBB357:
.LBB358:
	.file 5 "/mnt/disk/jenkins/ci/workspace/chipset_patch_970_docker/opensource/component_code/vendor/huawei/extra/build/build_script/kirin_kernel_release/kernel/include/linux/compiler.h"
	.loc 5 276 0
	str	x0, [x23,24]
.LBE358:
.LBE357:
.LBE356:
.LBE355:
.LBE354:
.LBE359:
.LBE360:
	.loc 1 106 0
	ldp	x19, x20, [sp,16]
	.cfi_remember_state
	.cfi_restore 19
	.cfi_restore 20
.LVL44:
	ldp	x21, x22, [sp,32]
	.cfi_restore 21
	.cfi_restore 22
	ldp	x23, x24, [sp,48]
	.cfi_restore 23
	.cfi_restore 24
.LVL45:
	ldr	x25, [sp,64]
	.cfi_restore 25
.LVL46:
	ldp	x29, x30, [sp], 80
	.cfi_restore 29
	.cfi_restore 30
	.cfi_def_cfa 31, 0
	ret
.LVL47:
.L36:
	.cfi_restore_state
	.loc 1 100 0
	mov	x0, x22
	bl	kfree
.LVL48:
	.loc 1 101 0
	b	.L23
	.cfi_endproc
.LFE1559:
	.size	add_url_to_node, .-add_url_to_node
	.align	2
	.type	add_ad_rule_to_list.part.1, %function
add_ad_rule_to_list.part.1:
.LFB1576:
	.loc 1 108 0
	.cfi_startproc
.LVL49:
	stp	x29, x30, [sp, -80]!
	.cfi_def_cfa_offset 80
	.cfi_offset 29, -80
	.cfi_offset 30, -72
	add	x29, sp, 0
	.cfi_def_cfa_register 29
	stp	x21, x22, [sp,32]
	.cfi_offset 21, -48
	.cfi_offset 22, -40
	mov	x22, x0
	.loc 1 113 0
	mov	w0, w1
.LVL50:
	.loc 1 108 0
	stp	x23, x24, [sp,48]
	stp	x19, x20, [sp,16]
	stp	x25, x26, [sp,64]
	.cfi_offset 23, -32
	.cfi_offset 24, -24
	.cfi_offset 19, -64
	.cfi_offset 20, -56
	.cfi_offset 25, -16
	.cfi_offset 26, -8
	.loc 1 108 0
	mov	w19, w1
	mov	x23, x2
	mov	w24, w3
	.loc 1 113 0
	bl	get_hash_id
.LVL51:
	.loc 1 114 0
	cmp	w0, 255
	bhi	.L50
.LBB361:
.LBB362:
	.loc 2 307 0
	uxtw	x0, w0
	lsl	x21, x0, 5
	lsl	x25, x0, 4
	sub	x21, x21, x0, lsl 3
	add	x20, x22, x25
	add	x21, x21, 4096
	add	x21, x22, x21
	mov	x0, x21
.LVL52:
	bl	_raw_spin_lock_bh
.LVL53:
.LBE362:
.LBE361:
.LBB363:
	.loc 1 119 0
	ldr	x0, [x22,x25]
.LVL54:
.LBE363:
	.loc 1 119 0 is_stmt 0 discriminator 1
	cmp	x0, x20
	bne	.L44
	b	.L40
.L43:
.LBB364:
	.loc 1 119 0 discriminator 2
	ldr	x0, [x0]
.LBE364:
	.loc 1 119 0 discriminator 1
	cmp	x0, x20
	beq	.L40
.L44:
	.loc 1 120 0 is_stmt 1
	ldr	w1, [x0,16]
	cmp	w19, w1
	bne	.L43
	.loc 1 121 0
	mov	x1, x23
	mov	w2, w24
	bl	add_url_to_node
.LVL55:
.LBB365:
.LBB366:
	.loc 2 352 0
	mov	x0, x21
	bl	_raw_spin_unlock_bh
.LVL56:
.LBE366:
.LBE365:
	.loc 1 137 0
	ldp	x19, x20, [sp,16]
	.cfi_remember_state
	.cfi_restore 19
	.cfi_restore 20
.LVL57:
	ldp	x21, x22, [sp,32]
	.cfi_restore 21
	.cfi_restore 22
.LVL58:
	ldp	x23, x24, [sp,48]
	.cfi_restore 23
	.cfi_restore 24
.LVL59:
	ldp	x25, x26, [sp,64]
	.cfi_restore 25
	.cfi_restore 26
	ldp	x29, x30, [sp], 80
	.cfi_restore 29
	.cfi_restore 30
	.cfi_def_cfa 31, 0
	ret
.LVL60:
.L40:
	.cfi_restore_state
.LBB367:
.LBB368:
	.loc 3 495 0
	adrp	x0, kmalloc_caches+48
.LVL61:
	mov	w1, 32
	movk	w1, 0x208, lsl 16
	mov	x2, 56
	ldr	x0, [x0,#:lo12:kmalloc_caches+48]
	bl	kmem_cache_alloc_trace
.LVL62:
	mov	x26, x0
.LBE368:
.LBE367:
	.loc 1 127 0
	cbnz	x0, .L45
.LBB369:
.LBB370:
	.loc 2 352 0
	mov	x0, x21
	bl	_raw_spin_unlock_bh
.LVL63:
.L37:
.LBE370:
.LBE369:
	.loc 1 137 0
	ldp	x19, x20, [sp,16]
	.cfi_remember_state
	.cfi_restore 20
	.cfi_restore 19
.LVL64:
	ldp	x21, x22, [sp,32]
	.cfi_restore 22
	.cfi_restore 21
.LVL65:
	ldp	x23, x24, [sp,48]
	.cfi_restore 24
	.cfi_restore 23
.LVL66:
	ldp	x25, x26, [sp,64]
	.cfi_restore 26
	.cfi_restore 25
	ldp	x29, x30, [sp], 80
	.cfi_restore 30
	.cfi_restore 29
	.cfi_def_cfa 31, 0
	ret
.LVL67:
.L50:
	.cfi_restore_state
	.loc 1 115 0
	mov	w1, w0
	adrp	x0, .LC3
.LVL68:
	add	x0, x0, :lo12:.LC3
	bl	printk
.LVL69:
	b	.L37
.L45:
	.loc 1 131 0
	ldr	w0, [x22,10240]
	cbz	w0, .L47
	.loc 1 131 0 is_stmt 0 discriminator 2
	adrp	x1, .LC2
	add	x1, x1, :lo12:.LC2
.L46:
	.loc 1 131 0 discriminator 4
	adrp	x0, .LC4
	mov	w2, w19
	mov	x3, x23
	add	x0, x0, :lo12:.LC4
	bl	printk
.LVL70:
	.loc 1 132 0 is_stmt 1
	add	x3, x26, 24
.LBB371:
.LBB372:
.LBB373:
.LBB374:
.LBB375:
	.loc 5 276 0
	str	x3, [x26,24]
.LBE375:
.LBE374:
.LBE373:
.LBE372:
.LBE371:
	.loc 1 134 0
	mov	x0, x26
	mov	x1, x23
	mov	w2, w24
.LBB377:
.LBB376:
	.loc 4 28 0
	str	x3, [x3,8]
.LBE376:
.LBE377:
	.loc 1 133 0
	str	w19, [x26,16]
	.loc 1 134 0
	bl	add_url_to_node
.LVL71:
.LBB378:
.LBB379:
	.loc 4 63 0
	ldr	x1, [x22,x25]
.LBE379:
.LBE378:
.LBB386:
.LBB387:
	.loc 2 352 0
	mov	x0, x21
.LBE387:
.LBE386:
.LBB389:
.LBB385:
.LBB380:
.LBB381:
	.loc 4 42 0
	str	x26, [x1,8]
.LBB382:
.LBB383:
.LBB384:
	.loc 5 276 0
	str	x26, [x22,x25]
.LBE384:
.LBE383:
.LBE382:
	.loc 4 43 0
	str	x1, [x26]
	.loc 4 44 0
	str	x20, [x26,8]
.LBE381:
.LBE380:
.LBE385:
.LBE389:
.LBB390:
.LBB388:
	.loc 2 352 0
	bl	_raw_spin_unlock_bh
.LVL72:
	b	.L37
.L47:
.LBE388:
.LBE390:
	.loc 1 131 0 discriminator 1
	adrp	x1, .LC1
	add	x1, x1, :lo12:.LC1
	b	.L46
	.cfi_endproc
.LFE1576:
	.size	add_ad_rule_to_list.part.1, .-add_ad_rule_to_list.part.1
	.align	2
	.global	add_ad_rule_to_list
	.type	add_ad_rule_to_list, %function
add_ad_rule_to_list:
.LFB1560:
	.loc 1 109 0
	.cfi_startproc
.LVL73:
	stp	x29, x30, [sp, -16]!
	.cfi_def_cfa_offset 16
	.cfi_offset 29, -16
	.cfi_offset 30, -8
	add	x29, sp, 0
	.cfi_def_cfa_register 29
	.loc 1 111 0
	cbz	x0, .L51
	cbz	x2, .L51
	bl	add_ad_rule_to_list.part.1
.LVL74:
.L51:
	.loc 1 137 0
	ldp	x29, x30, [sp], 16
	.cfi_restore 30
	.cfi_restore 29
	.cfi_def_cfa 31, 0
	ret
	.cfi_endproc
.LFE1560:
	.size	add_ad_rule_to_list, .-add_ad_rule_to_list
	.align	2
	.global	add_ad_uid_rule
	.type	add_ad_uid_rule, %function
add_ad_uid_rule:
.LFB1561:
	.loc 1 140 0
	.cfi_startproc
.LVL75:
	stp	x29, x30, [sp, -96]!
	.cfi_def_cfa_offset 96
	.cfi_offset 29, -96
	.cfi_offset 30, -88
	add	x29, sp, 0
	.cfi_def_cfa_register 29
	stp	x23, x24, [sp,48]
	.cfi_offset 23, -48
	.cfi_offset 24, -40
	adrp	x23, __stack_chk_guard
	mov	x24, x0
	stp	x21, x22, [sp,32]
	stp	x19, x20, [sp,16]
	ldr	x0, [x23,#:lo12:__stack_chk_guard]
.LVL76:
	.cfi_offset 21, -64
	.cfi_offset 22, -56
	.cfi_offset 19, -80
	.cfi_offset 20, -72
	mov	x21, x1
	stp	x25, x26, [sp,64]
	.cfi_offset 25, -32
	.cfi_offset 26, -24
	.loc 1 142 0
	str	xzr, [x29,80]
.LVL77:
	.loc 1 140 0
	sxtw	x22, w2
	str	x0, [x29,88]
	.loc 1 147 0
	cbz	x24, .L53
	cbz	x1, .L53
	.loc 1 149 0
	mov	x0, x1
	mov	w1, 58
	bl	strchr
.LVL78:
	str	x0, [x29,80]
	.loc 1 150 0
	cbz	x0, .L53
	.loc 1 152 0
	mov	w2, 10
	mov	x0, x21
	add	x1, x29, 80
	bl	simple_strtoull
.LVL79:
	mov	x25, x0
	.loc 1 153 0
	ldr	x2, [x29,80]
.LVL80:
	.loc 1 152 0
	mov	w26, w0
.LVL81:
	.loc 1 153 0
	add	x2, x2, 1
.LVL82:
	str	x2, [x29,80]
	.loc 1 154 0
	sub	x0, x2, x21
.LVL83:
	.loc 1 155 0
	cmp	w0, w22
	.loc 1 154 0
	mov	w19, w0
.LVL84:
	.loc 1 155 0
	blt	.L58
	b	.L55
.L56:
	.loc 1 162 0
	add	w19, w19, 1
	.loc 1 155 0
	cmp	w22, w19
	ble	.L69
.L58:
	.loc 1 156 0
	sxtw	x20, w19
	add	x3, x21, x20
	ldrb	w0, [x21,x20]
	cmp	w0, 44
	bne	.L56
	.loc 1 157 0
	sub	x3, x3, x2
.LBB391:
.LBB392:
	.loc 1 111 0
	cmp	w3, wzr
	ble	.L57
	cbz	x2, .L57
	mov	x0, x24
	mov	w1, w26
	bl	add_ad_rule_to_list.part.1
.LVL85:
.L57:
.LBE392:
.LBE391:
	.loc 1 160 0
	add	x2, x20, 1
	.loc 1 162 0
	add	w19, w19, 1
	.loc 1 160 0
	add	x2, x21, x2
	.loc 1 155 0
	cmp	w22, w19
	.loc 1 160 0
	str	x2, [x29,80]
	.loc 1 155 0
	bgt	.L58
.L69:
	sub	x0, x2, x21
.L55:
	.loc 1 164 0
	cmp	x22, x0
.LVL86:
	ble	.L53
.LBB393:
.LBB394:
	.loc 1 111 0
	cbnz	x2, .L70
.LVL87:
.L53:
.LBE394:
.LBE393:
	.loc 1 168 0
	ldr	x1, [x29,88]
	ldr	x0, [x23,#:lo12:__stack_chk_guard]
	cmp	x1, x0
	bne	.L71
	ldp	x19, x20, [sp,16]
	.cfi_remember_state
	.cfi_restore 20
	.cfi_restore 19
.LVL88:
	ldp	x21, x22, [sp,32]
	.cfi_restore 22
	.cfi_restore 21
.LVL89:
	ldp	x23, x24, [sp,48]
	.cfi_restore 24
	.cfi_restore 23
.LVL90:
	ldp	x25, x26, [sp,64]
	.cfi_restore 26
	.cfi_restore 25
.LVL91:
	ldp	x29, x30, [sp], 96
	.cfi_restore 30
	.cfi_restore 29
	.cfi_def_cfa 31, 0
	ret
.LVL92:
.L70:
	.cfi_restore_state
	.loc 1 165 0
	add	x3, x21, x22
.LBB396:
.LBB395:
	mov	x0, x24
	mov	w1, w25
	sub	w3, w3, w2
	bl	add_ad_rule_to_list.part.1
.LVL93:
	b	.L53
.LVL94:
.L71:
.LBE395:
.LBE396:
	.loc 1 168 0
	bl	__stack_chk_fail
.LVL95:
	.cfi_endproc
.LFE1561:
	.size	add_ad_uid_rule, .-add_ad_uid_rule
	.align	2
	.global	clear_node_ad_rule
	.type	clear_node_ad_rule, %function
clear_node_ad_rule:
.LFB1563:
	.loc 1 199 0
	.cfi_startproc
.LVL96:
	stp	x29, x30, [sp, -64]!
	.cfi_def_cfa_offset 64
	.cfi_offset 29, -64
	.cfi_offset 30, -56
	add	x29, sp, 0
	.cfi_def_cfa_register 29
	stp	x19, x20, [sp,16]
	stp	x21, x22, [sp,32]
	str	x23, [sp,48]
	.cfi_offset 19, -48
	.cfi_offset 20, -40
	.cfi_offset 21, -32
	.cfi_offset 22, -24
	.cfi_offset 23, -16
	.loc 1 203 0
	cbz	x0, .L72
.LBB397:
	.loc 1 205 0
	mov	x22, x0
	mov	x23, x0
	ldr	x19, [x22,24]!
.LBE397:
	.loc 1 205 0 is_stmt 0 discriminator 1
	cmp	x19, x22
.LBB398:
	.loc 1 205 0
	ldr	x20, [x19]
.LBE398:
	.loc 1 205 0 discriminator 1
	beq	.L76
.L79:
.LBB399:
.LBB400:
	.loc 4 107 0 is_stmt 1
	ldr	x3, [x19,8]
	.loc 4 108 0
	mov	x2, 256
.LBB401:
.LBB402:
	.loc 4 89 0
	str	x3, [x20,8]
.LBE402:
.LBE401:
	.loc 4 109 0
	mov	x1, 512
	.loc 4 108 0
	movk	x2, 0xdead, lsl 48
	.loc 4 109 0
	movk	x1, 0xdead, lsl 48
.LBB407:
.LBB406:
.LBB403:
.LBB404:
.LBB405:
	.loc 5 276 0
	str	x20, [x3]
.LBE405:
.LBE404:
	.loc 4 90 0
	mov	x21, x20
.LBE403:
.LBE406:
.LBE407:
	.loc 4 108 0
	str	x2, [x19]
.LBE400:
.LBE399:
	.loc 1 208 0
	ldr	x0, [x19,16]
.LBB409:
.LBB408:
	.loc 4 109 0
	str	x1, [x19,8]
.LBE408:
.LBE409:
	.loc 1 207 0
	str	wzr, [x19,24]
	.loc 1 208 0
	bl	kfree
.LVL97:
	.loc 1 209 0
	mov	x0, x19
	mov	x19, x20
	bl	kfree
.LVL98:
	.loc 1 205 0 discriminator 3
	ldr	x20, [x20]
	.loc 1 205 0 is_stmt 0 discriminator 1
	cmp	x21, x22
	bne	.L79
.LVL99:
.L76:
.LBB410:
.LBB411:
	.loc 4 107 0 is_stmt 1
	ldr	x4, [x23]
	.loc 4 108 0
	mov	x2, 256
	.loc 4 107 0
	ldr	x3, [x23,8]
	.loc 4 109 0
	mov	x1, 512
	.loc 4 108 0
	movk	x2, 0xdead, lsl 48
	.loc 4 109 0
	movk	x1, 0xdead, lsl 48
.LBB412:
.LBB413:
	.loc 4 89 0
	str	x3, [x4,8]
.LBE413:
.LBE412:
.LBE411:
.LBE410:
	.loc 1 212 0
	mov	x0, x23
.LBB420:
.LBB419:
.LBB418:
.LBB417:
.LBB414:
.LBB415:
.LBB416:
	.loc 5 276 0
	str	x4, [x3]
.LBE416:
.LBE415:
.LBE414:
.LBE417:
.LBE418:
	.loc 4 108 0
	str	x2, [x23]
	.loc 4 109 0
	str	x1, [x23,8]
.LBE419:
.LBE420:
	.loc 1 212 0
	bl	kfree
.LVL100:
.L72:
	.loc 1 213 0
	ldp	x19, x20, [sp,16]
	.cfi_restore 20
	.cfi_restore 19
	ldp	x21, x22, [sp,32]
	.cfi_restore 22
	.cfi_restore 21
	ldr	x23, [sp,48]
	.cfi_restore 23
	ldp	x29, x30, [sp], 64
	.cfi_restore 30
	.cfi_restore 29
	.cfi_def_cfa 31, 0
	ret
	.cfi_endproc
.LFE1563:
	.size	clear_node_ad_rule, .-clear_node_ad_rule
	.section	.text.unlikely,"ax",%progbits
	.align	2
	.type	clear_ad_rule.part.3, %function
clear_ad_rule.part.3:
.LFB1578:
	.loc 1 253 0
	.cfi_startproc
.LVL101:
	stp	x29, x30, [sp, -48]!
	.cfi_def_cfa_offset 48
	.cfi_offset 29, -48
	.cfi_offset 30, -40
	add	x29, sp, 0
	.cfi_def_cfa_register 29
	stp	x19, x20, [sp,16]
	stp	x21, x22, [sp,32]
	.cfi_offset 19, -32
	.cfi_offset 20, -24
	.cfi_offset 21, -16
	.cfi_offset 22, -8
	.loc 1 253 0
	mov	x19, x0
	.loc 1 265 0
	ldr	w0, [x0,10240]
.LVL102:
	cbz	w0, .L87
	.loc 1 265 0 is_stmt 0 discriminator 2
	adrp	x1, .LC2
	add	x1, x1, :lo12:.LC2
	b	.L83
.L87:
	.loc 1 265 0 discriminator 1
	adrp	x1, .LC1
	add	x1, x1, :lo12:.LC1
.L83:
	mov	x20, x19
	.loc 1 265 0 discriminator 4
	adrp	x0, .LC5
	add	x21, x20, 8192
	add	x0, x0, :lo12:.LC5
	add	x19, x19, 4096
.LVL103:
	add	x21, x21, 2048
	bl	printk
.LVL104:
.L86:
.LBB421:
.LBB422:
	.loc 2 307 0 is_stmt 1
	mov	x0, x19
	bl	_raw_spin_lock_bh
.LVL105:
.LBE422:
.LBE421:
.LBB423:
	.loc 1 268 0
	ldr	x1, [x20]
.LBE423:
.LBB424:
	ldr	x22, [x1]
.L84:
.LBE424:
	.loc 1 268 0 is_stmt 0 discriminator 1
	cmp	x1, x20
	.loc 1 269 0 is_stmt 1
	mov	x0, x1
	.loc 1 268 0 discriminator 1
	beq	.L89
	.loc 1 269 0
	bl	clear_node_ad_rule
.LVL106:
	.loc 1 268 0 discriminator 3
	mov	x1, x22
	ldr	x22, [x22]
	b	.L84
.L89:
.LBB425:
.LBB426:
	.loc 2 352 0
	mov	x0, x19
	add	x20, x1, 16
	add	x19, x19, 24
	bl	_raw_spin_unlock_bh
.LVL107:
.LBE426:
.LBE425:
	.loc 1 266 0 discriminator 1
	cmp	x19, x21
	bne	.L86
	.loc 1 273 0
	ldp	x19, x20, [sp,16]
	.cfi_restore 20
	.cfi_restore 19
	ldp	x21, x22, [sp,32]
	.cfi_restore 22
	.cfi_restore 21
	ldp	x29, x30, [sp], 48
	.cfi_restore 30
	.cfi_restore 29
	.cfi_def_cfa 31, 0
	ret
	.cfi_endproc
.LFE1578:
	.size	clear_ad_rule.part.3, .-clear_ad_rule.part.3
	.text
	.align	2
	.global	clear_uid_ad_rule
	.type	clear_uid_ad_rule, %function
clear_uid_ad_rule:
.LFB1564:
	.loc 1 216 0
	.cfi_startproc
.LVL108:
	stp	x29, x30, [sp, -64]!
	.cfi_def_cfa_offset 64
	.cfi_offset 29, -64
	.cfi_offset 30, -56
	add	x29, sp, 0
	.cfi_def_cfa_register 29
	stp	x19, x20, [sp,16]
	stp	x21, x22, [sp,32]
	str	x23, [sp,48]
	.cfi_offset 19, -48
	.cfi_offset 20, -40
	.cfi_offset 21, -32
	.cfi_offset 22, -24
	.cfi_offset 23, -16
	.loc 1 219 0
	cbz	x0, .L90
	mov	x19, x0
	.loc 1 221 0
	mov	w0, w1
.LVL109:
	mov	w20, w1
	bl	get_hash_id
.LVL110:
	.loc 1 222 0
	cmp	w0, 255
	bls	.L100
.L90:
	.loc 1 230 0
	ldp	x19, x20, [sp,16]
	.cfi_remember_state
	.cfi_restore 20
	.cfi_restore 19
.LVL111:
	ldp	x21, x22, [sp,32]
	.cfi_restore 22
	.cfi_restore 21
	ldr	x23, [sp,48]
	.cfi_restore 23
	ldp	x29, x30, [sp], 64
	.cfi_restore 30
	.cfi_restore 29
	.cfi_def_cfa 31, 0
	ret
.LVL112:
.L100:
	.cfi_restore_state
.LBB427:
.LBB428:
	.loc 2 307 0
	uxtw	x21, w0
.LVL113:
	lsl	x23, x21, 5
	sub	x23, x23, x21, lsl 3
.LBE428:
.LBE427:
.LBB431:
	.loc 1 225 0
	lsl	x21, x21, 4
.LVL114:
.LBE431:
.LBB432:
.LBB429:
	.loc 2 307 0
	add	x23, x23, 4096
.LBE429:
.LBE432:
.LBB433:
	.loc 1 225 0
	add	x22, x19, x21
.LBE433:
.LBB434:
.LBB430:
	.loc 2 307 0
	add	x23, x19, x23
	mov	x0, x23
	bl	_raw_spin_lock_bh
.LVL115:
.LBE430:
.LBE434:
.LBB435:
	.loc 1 225 0
	ldr	x0, [x19,x21]
.LBE435:
	.loc 1 225 0 is_stmt 0 discriminator 1
	cmp	x0, x22
.LBB436:
	.loc 1 225 0
	ldr	x19, [x0]
.LVL116:
.LBE436:
	.loc 1 225 0 discriminator 1
	bne	.L99
	b	.L97
.L95:
	cmp	x19, x22
.LBB437:
	.loc 1 225 0 discriminator 2
	ldr	x1, [x19]
	mov	x0, x19
.LBE437:
	mov	x19, x1
	.loc 1 225 0 discriminator 1
	beq	.L97
.L99:
	.loc 1 226 0 is_stmt 1
	ldr	w1, [x0,16]
	cmp	w20, w1
	bne	.L95
	.loc 1 227 0
	bl	clear_node_ad_rule
.LVL117:
	.loc 1 225 0 discriminator 1
	cmp	x19, x22
.LBB438:
	.loc 1 225 0 is_stmt 0 discriminator 2
	ldr	x1, [x19]
	mov	x0, x19
.LBE438:
	mov	x19, x1
	.loc 1 225 0 discriminator 1
	bne	.L99
.L97:
.LBB439:
.LBB440:
	.loc 2 352 0 is_stmt 1
	mov	x0, x23
	bl	_raw_spin_unlock_bh
.LVL118:
.LBE440:
.LBE439:
	.loc 1 230 0
	ldr	x23, [sp,48]
	.cfi_restore 23
	ldp	x19, x20, [sp,16]
	.cfi_restore 19
	.cfi_restore 20
.LVL119:
	ldp	x21, x22, [sp,32]
	.cfi_restore 21
	.cfi_restore 22
	ldp	x29, x30, [sp], 64
	.cfi_restore 29
	.cfi_restore 30
	.cfi_def_cfa 31, 0
	ret
	.cfi_endproc
.LFE1564:
	.size	clear_uid_ad_rule, .-clear_uid_ad_rule
	.align	2
	.type	clear_ad_rule_string.part.2, %function
clear_ad_rule_string.part.2:
.LFB1577:
	.loc 1 232 0
	.cfi_startproc
.LVL120:
	stp	x29, x30, [sp, -64]!
	.cfi_def_cfa_offset 64
	.cfi_offset 29, -64
	.cfi_offset 30, -56
	add	x29, sp, 0
	.cfi_def_cfa_register 29
	stp	x21, x22, [sp,32]
	.cfi_offset 21, -32
	.cfi_offset 22, -24
	adrp	x21, __stack_chk_guard
	mov	x22, x0
	stp	x19, x20, [sp,16]
	.cfi_offset 19, -48
	.cfi_offset 20, -40
	.loc 1 242 0
	add	x20, x29, 64
	.loc 1 232 0
	mov	x19, x1
	.loc 1 242 0
	mov	x0, x1
.LVL121:
	.loc 1 232 0
	ldr	x1, [x21,#:lo12:__stack_chk_guard]
.LVL122:
	str	x1, [x29,56]
	.loc 1 242 0
	str	x19, [x20,-16]!
.LVL123:
.L102:
	.loc 1 243 0
	cbz	x0, .L101
	.loc 1 243 0 is_stmt 0 discriminator 1
	ldrb	w0, [x0]
	cbz	w0, .L101
	.loc 1 244 0 is_stmt 1
	mov	x0, x19
	mov	w1, 59
	bl	strchr
.LVL124:
	str	x0, [x29,48]
.LVL125:
	.loc 1 245 0
	cbnz	x0, .L112
.L101:
	.loc 1 251 0
	ldr	x1, [x29,56]
	ldr	x0, [x21,#:lo12:__stack_chk_guard]
	cmp	x1, x0
	bne	.L113
	ldp	x19, x20, [sp,16]
	.cfi_remember_state
	.cfi_restore 20
	.cfi_restore 19
.LVL126:
	ldp	x21, x22, [sp,32]
	.cfi_restore 22
	.cfi_restore 21
.LVL127:
	ldp	x29, x30, [sp], 64
	.cfi_restore 30
	.cfi_restore 29
	.cfi_def_cfa 31, 0
	ret
.LVL128:
.L112:
	.cfi_restore_state
	.loc 1 246 0
	mov	x0, x19
	mov	w2, 10
	mov	x1, x20
	bl	simple_strtoull
.LVL129:
	mov	x1, x0
	.loc 1 247 0
	mov	x0, x22
	bl	clear_uid_ad_rule
.LVL130:
	.loc 1 248 0
	ldr	x0, [x29,48]
	add	x19, x0, 1
	b	.L102
.LVL131:
.L113:
	.loc 1 251 0
	bl	__stack_chk_fail
.LVL132:
	.cfi_endproc
.LFE1577:
	.size	clear_ad_rule_string.part.2, .-clear_ad_rule_string.part.2
	.align	2
	.global	clear_ad_rule_string
	.type	clear_ad_rule_string, %function
clear_ad_rule_string:
.LFB1565:
	.loc 1 233 0
	.cfi_startproc
.LVL133:
	stp	x29, x30, [sp, -16]!
	.cfi_def_cfa_offset 16
	.cfi_offset 29, -16
	.cfi_offset 30, -8
	add	x29, sp, 0
	.cfi_def_cfa_register 29
	.loc 1 239 0
	cbz	x0, .L114
	cbz	x1, .L114
	bl	clear_ad_rule_string.part.2
.LVL134:
.L114:
	.loc 1 251 0
	ldp	x29, x30, [sp], 16
	.cfi_restore 30
	.cfi_restore 29
	.cfi_def_cfa 31, 0
	ret
	.cfi_endproc
.LFE1565:
	.size	clear_ad_rule_string, .-clear_ad_rule_string
	.align	2
	.global	clear_ad_rule
	.type	clear_ad_rule, %function
clear_ad_rule:
.LFB1566:
	.loc 1 254 0
	.cfi_startproc
.LVL135:
	stp	x29, x30, [sp, -16]!
	.cfi_def_cfa_offset 16
	.cfi_offset 29, -16
	.cfi_offset 30, -8
	add	x29, sp, 0
	.cfi_def_cfa_register 29
	.loc 1 259 0
	cbz	x0, .L116
	cbz	x2, .L116
	.loc 1 261 0
	cbnz	w1, .L118
.LBB443:
.LBB444:
	mov	x1, x2
.LVL136:
	bl	clear_ad_rule_string.part.2
.LVL137:
.L116:
.LBE444:
.LBE443:
	.loc 1 273 0
	ldp	x29, x30, [sp], 16
	.cfi_remember_state
	.cfi_restore 30
	.cfi_restore 29
	.cfi_def_cfa 31, 0
	ret
.L118:
	.cfi_restore_state
	bl	clear_ad_rule.part.3
.LVL138:
	b	.L116
	.cfi_endproc
.LFE1566:
	.size	clear_ad_rule, .-clear_ad_rule
	.align	2
	.global	add_ad_rule
	.type	add_ad_rule, %function
add_ad_rule:
.LFB1562:
	.loc 1 171 0
	.cfi_startproc
.LVL139:
	stp	x29, x30, [sp, -64]!
	.cfi_def_cfa_offset 64
	.cfi_offset 29, -64
	.cfi_offset 30, -56
	add	x29, sp, 0
	.cfi_def_cfa_register 29
	stp	x19, x20, [sp,16]
	stp	x21, x22, [sp,32]
	str	x23, [sp,48]
	.cfi_offset 19, -48
	.cfi_offset 20, -40
	.cfi_offset 21, -32
	.cfi_offset 22, -24
	.cfi_offset 23, -16
	.loc 1 171 0
	uxtb	w19, w2
.LVL140:
	.loc 1 175 0
	cbz	x1, .L119
	cbz	x0, .L119
	mov	x22, x0
	.loc 1 177 0
	mov	x0, x1
.LVL141:
	mov	x21, x1
	bl	strlen
.LVL142:
	sxtw	x23, w0
	.loc 1 179 0
	cbnz	w19, .L135
.L122:
	ldrb	w2, [x21]
	.loc 1 171 0
	mov	x19, x21
.LVL143:
	b	.L124
.L125:
	.loc 1 182 0
	bl	strchr
.LVL144:
	mov	x20, x0
.LVL145:
	.loc 1 186 0
	mov	x1, x19
	mov	x0, x22
	.loc 1 185 0
	sub	x19, x20, x19
	.loc 1 183 0
	cbz	x20, .L119
	.loc 1 185 0
	cmp	x19, xzr
	.loc 1 186 0
	mov	w2, w19
	.loc 1 189 0
	add	x19, x20, 1
	.loc 1 185 0
	ble	.L119
	.loc 1 186 0
	bl	add_ad_uid_rule
.LVL146:
	.loc 1 187 0
	sub	x2, x20, x21
	cmp	x2, x23
	bge	.L119
	.loc 1 190 0
	ldrb	w20, [x20,1]
.LVL147:
	mov	w2, w20
	cbz	w20, .L119
.L124:
.LVL148:
	.loc 1 182 0
	mov	x0, x19
	mov	w1, 59
	.loc 1 181 0
	cbnz	w2, .L125
.LVL149:
.L119:
	.loc 1 196 0
	ldp	x19, x20, [sp,16]
	.cfi_remember_state
	.cfi_restore 20
	.cfi_restore 19
.LVL150:
	ldp	x21, x22, [sp,32]
	.cfi_restore 22
	.cfi_restore 21
.LVL151:
	ldr	x23, [sp,48]
	.cfi_restore 23
	ldp	x29, x30, [sp], 64
	.cfi_restore 30
	.cfi_restore 29
	.cfi_def_cfa 31, 0
	ret
.LVL152:
.L135:
	.cfi_restore_state
	.loc 1 180 0
	adrp	x2, .LC6
	mov	x0, x22
	mov	w1, 1
	add	x2, x2, :lo12:.LC6
	bl	clear_ad_rule
.LVL153:
	b	.L122
	.cfi_endproc
.LFE1562:
	.size	add_ad_rule, .-add_ad_rule
	.align	2
	.global	match_ad_uid
	.type	match_ad_uid, %function
match_ad_uid:
.LFB1567:
	.loc 1 276 0
	.cfi_startproc
.LVL154:
	stp	x29, x30, [sp, -48]!
	.cfi_def_cfa_offset 48
	.cfi_offset 29, -48
	.cfi_offset 30, -40
	add	x29, sp, 0
	.cfi_def_cfa_register 29
	stp	x19, x20, [sp,16]
	stp	x21, x22, [sp,32]
	.cfi_offset 19, -32
	.cfi_offset 20, -24
	.cfi_offset 21, -16
	.cfi_offset 22, -8
	.loc 1 278 0
	cbz	x0, .L145
	mov	x22, x0
	.loc 1 280 0
	mov	w0, w1
.LVL155:
	mov	w19, w1
	bl	get_hash_id
.LVL156:
	.loc 1 282 0
	cmp	w0, 255
	.loc 1 280 0
	mov	w2, w0
.LVL157:
	.loc 1 282 0
	bhi	.L149
.LVL158:
.LBB445:
.LBB446:
	.loc 2 307 0
	uxtw	x20, w0
.LVL159:
	lsl	x21, x20, 5
	sub	x21, x21, x20, lsl 3
.LBE446:
.LBE445:
.LBB448:
	.loc 1 287 0
	lsl	x20, x20, 4
.LVL160:
.LBE448:
.LBB449:
.LBB447:
	.loc 2 307 0
	add	x21, x21, 4096
	add	x21, x22, x21
	mov	x0, x21
	bl	_raw_spin_lock_bh
.LVL161:
.LBE447:
.LBE449:
.LBB450:
	.loc 1 287 0
	ldr	x0, [x22,x20]
.LVL162:
	add	x1, x22, x20
.LBE450:
	.loc 1 287 0 is_stmt 0 discriminator 1
	cmp	x0, x1
	bne	.L144
	b	.L140
.L143:
.LBB451:
	.loc 1 287 0 discriminator 2
	ldr	x0, [x0]
.LBE451:
	.loc 1 287 0 discriminator 1
	cmp	x0, x1
	beq	.L140
.L144:
	.loc 1 288 0 is_stmt 1
	ldr	w2, [x0,16]
	cmp	w2, w19
	bne	.L143
.LBB452:
.LBB453:
	.loc 2 352 0
	mov	x0, x21
.LVL163:
	bl	_raw_spin_unlock_bh
.LVL164:
.LBE453:
.LBE452:
	.loc 1 290 0
	mov	w0, 1
.L137:
	.loc 1 295 0
	ldp	x19, x20, [sp,16]
	.cfi_remember_state
	.cfi_restore 20
	.cfi_restore 19
.LVL165:
	ldp	x21, x22, [sp,32]
	.cfi_restore 22
	.cfi_restore 21
.LVL166:
	ldp	x29, x30, [sp], 48
	.cfi_restore 30
	.cfi_restore 29
	.cfi_def_cfa 31, 0
	ret
.LVL167:
.L140:
	.cfi_restore_state
.LBB454:
.LBB455:
	.loc 2 352 0
	mov	x0, x21
.LVL168:
	bl	_raw_spin_unlock_bh
.LVL169:
.LBE455:
.LBE454:
	.loc 1 294 0
	mov	w0, 0
	.loc 1 295 0
	ldp	x19, x20, [sp,16]
	.cfi_remember_state
	.cfi_restore 19
	.cfi_restore 20
.LVL170:
	ldp	x21, x22, [sp,32]
	.cfi_restore 21
	.cfi_restore 22
.LVL171:
	ldp	x29, x30, [sp], 48
	.cfi_restore 29
	.cfi_restore 30
	.cfi_def_cfa 31, 0
	ret
.LVL172:
.L145:
	.cfi_restore_state
	.loc 1 279 0
	mov	w0, 0
.LVL173:
	.loc 1 295 0
	ldp	x19, x20, [sp,16]
	.cfi_remember_state
	.cfi_restore 19
	.cfi_restore 20
	ldp	x21, x22, [sp,32]
	.cfi_restore 21
	.cfi_restore 22
	ldp	x29, x30, [sp], 48
	.cfi_restore 29
	.cfi_restore 30
	.cfi_def_cfa 31, 0
	ret
.LVL174:
.L149:
	.cfi_restore_state
	.loc 1 283 0
	ldr	w0, [x22,10240]
	cbz	w0, .L146
	.loc 1 283 0 is_stmt 0 discriminator 2
	adrp	x1, .LC2
	add	x1, x1, :lo12:.LC2
.L139:
	.loc 1 283 0 discriminator 4
	adrp	x0, .LC7
	mov	w3, w19
	add	x0, x0, :lo12:.LC7
	bl	printk
.LVL175:
	.loc 1 284 0 is_stmt 1
	mov	w0, 0
	b	.L137
.LVL176:
.L146:
	.loc 1 283 0 discriminator 1
	adrp	x1, .LC1
	add	x1, x1, :lo12:.LC1
	b	.L139
	.cfi_endproc
.LFE1567:
	.size	match_ad_uid, .-match_ad_uid
	.align	2
	.global	match_url_string
	.type	match_url_string, %function
match_url_string:
.LFB1569:
	.loc 1 332 0
	.cfi_startproc
.LVL177:
	stp	x29, x30, [sp, -16]!
	.cfi_def_cfa_offset 16
	.cfi_offset 29, -16
	.cfi_offset 30, -8
	add	x29, sp, 0
	.cfi_def_cfa_register 29
	.loc 1 333 0
	cbz	x0, .L152
	cbz	x1, .L152
	bl	match_url_string.part.4
.LVL178:
	uxtb	w0, w0
	.loc 1 358 0
	ldp	x29, x30, [sp], 16
	.cfi_remember_state
	.cfi_restore 29
	.cfi_restore 30
	.cfi_def_cfa 31, 0
	ret
.LVL179:
.L152:
	.cfi_restore_state
	.loc 1 334 0
	mov	w0, 0
.LVL180:
	.loc 1 358 0
	ldp	x29, x30, [sp], 16
	.cfi_restore 30
	.cfi_restore 29
	.cfi_def_cfa 31, 0
	ret
	.cfi_endproc
.LFE1569:
	.size	match_url_string, .-match_url_string
	.align	2
	.type	match_url_string.part.4, %function
match_url_string.part.4:
.LFB1579:
	.loc 1 331 0
	.cfi_startproc
.LVL181:
	stp	x29, x30, [sp, -64]!
	.cfi_def_cfa_offset 64
	.cfi_offset 29, -64
	.cfi_offset 30, -56
	add	x29, sp, 0
	.cfi_def_cfa_register 29
	stp	x19, x20, [sp,16]
	.cfi_offset 19, -48
	.cfi_offset 20, -40
	mov	x19, x1
	.loc 1 335 0
	adrp	x1, .LC8
.LVL182:
	.loc 1 331 0
	str	x23, [sp,48]
	.loc 1 335 0
	add	x1, x1, :lo12:.LC8
	.cfi_offset 23, -16
	.loc 1 331 0
	mov	x23, x0
	.loc 1 335 0
	mov	x0, x19
.LVL183:
	.loc 1 331 0
	stp	x21, x22, [sp,32]
	.cfi_offset 21, -32
	.cfi_offset 22, -24
	.loc 1 331 0
	mov	w21, w2
	.loc 1 335 0
	bl	strfindpos
.LVL184:
	mov	x20, x0
.LVL185:
	.loc 1 337 0
	cbz	x0, .L160
	.loc 1 343 0
	cmp	x19, x0
	beq	.L161
	.loc 1 346 0
	sxtw	x22, w21
	sub	x0, x22, #1
	add	x0, x19, x0
	cmp	x20, x0
	beq	.L162
	.loc 1 355 0
	sub	x21, x20, x19
.LVL186:
.LBB460:
.LBB461:
	.loc 1 302 0
	mov	x0, x23
	mov	x1, x19
	mov	w2, w21
.LBE461:
.LBE460:
	.loc 1 354 0
	add	x23, x20, 1
.LVL187:
.LBB471:
.LBB468:
	.loc 1 302 0
	bl	strfinds2
.LVL188:
	.loc 1 303 0
	cbz	x0, .L159
.LBB462:
.LBB463:
	.loc 1 333 0
	adds	x0, x0, x21, sxtw
	beq	.L159
	cbnz	x23, .L163
.L159:
.LBE463:
.LBE462:
	.loc 1 304 0
	mov	w0, 0
.LVL189:
.L155:
.LBE468:
.LBE471:
	.loc 1 358 0
	ldp	x19, x20, [sp,16]
	.cfi_remember_state
	.cfi_restore 20
	.cfi_restore 19
.LVL190:
	ldp	x21, x22, [sp,32]
	.cfi_restore 22
	.cfi_restore 21
.LVL191:
	ldr	x23, [sp,48]
	.cfi_restore 23
.LVL192:
	ldp	x29, x30, [sp], 64
	.cfi_restore 30
	.cfi_restore 29
	.cfi_def_cfa 31, 0
	ret
.LVL193:
.L163:
	.cfi_restore_state
	.loc 1 356 0
	add	x2, x19, x22
.LBB472:
.LBB469:
.LBB466:
.LBB464:
	mov	x1, x23
.LBE464:
.LBE466:
.LBE469:
.LBE472:
	sub	x2, x2, x20
.LBB473:
.LBB470:
.LBB467:
.LBB465:
	sub	w2, w2, #1
	bl	match_url_string.part.4
.LVL194:
	uxtb	w0, w0
.LBE465:
.LBE467:
.LBE470:
.LBE473:
	.loc 1 358 0
	ldp	x19, x20, [sp,16]
	.cfi_remember_state
	.cfi_restore 19
	.cfi_restore 20
.LVL195:
	ldp	x21, x22, [sp,32]
	.cfi_restore 21
	.cfi_restore 22
	ldr	x23, [sp,48]
	.cfi_restore 23
	ldp	x29, x30, [sp], 64
	.cfi_restore 29
	.cfi_restore 30
	.cfi_def_cfa 31, 0
	ret
.LVL196:
.L162:
	.cfi_restore_state
	.loc 1 348 0
	mov	x1, x19
	sub	w2, w21, #1
	mov	x0, x23
	bl	strfinds2
.LVL197:
	cmp	x0, xzr
	cset	w0, ne
	.loc 1 358 0
	ldr	x23, [sp,48]
	.cfi_remember_state
	.cfi_restore 23
.LVL198:
	ldp	x19, x20, [sp,16]
	.cfi_restore 19
	.cfi_restore 20
.LVL199:
	ldp	x21, x22, [sp,32]
	.cfi_restore 21
	.cfi_restore 22
.LVL200:
	ldp	x29, x30, [sp], 64
	.cfi_restore 29
	.cfi_restore 30
	.cfi_def_cfa 31, 0
	ret
.LVL201:
.L160:
	.cfi_restore_state
	.loc 1 339 0
	mov	x0, x23
.LVL202:
	mov	x1, x19
	mov	w2, w21
	bl	strfinds2
.LVL203:
	cmp	x0, xzr
	cset	w0, ne
	b	.L155
.LVL204:
.L161:
	.loc 1 345 0
	mov	x0, x23
.LVL205:
	add	x1, x19, 1
	sub	w2, w21, #1
	bl	match_url_string
.LVL206:
	uxtb	w0, w0
	b	.L155
	.cfi_endproc
.LFE1579:
	.size	match_url_string.part.4, .-match_url_string.part.4
	.align	2
	.global	match_ab_string
	.type	match_ab_string, %function
match_ab_string:
.LFB1568:
	.loc 1 299 0
	.cfi_startproc
.LVL207:
	stp	x29, x30, [sp, -48]!
	.cfi_def_cfa_offset 48
	.cfi_offset 29, -48
	.cfi_offset 30, -40
	add	x29, sp, 0
	.cfi_def_cfa_register 29
	str	x19, [sp,16]
	.cfi_offset 19, -32
	.loc 1 299 0
	mov	w19, w2
	str	x3, [x29,32]
	str	x4, [x29,40]
	.loc 1 302 0
	bl	strfinds2
.LVL208:
	.loc 1 303 0
	cbz	x0, .L167
.LBB474:
.LBB475:
	.loc 1 333 0
	adds	x0, x0, x19, sxtw
	beq	.L167
	ldr	x3, [x29,32]
.LVL209:
	ldr	x4, [x29,40]
.LVL210:
	cbnz	x3, .L168
.L167:
.LBE475:
.LBE474:
	.loc 1 307 0
	ldr	x19, [sp,16]
	.cfi_remember_state
	.cfi_restore 19
.LVL211:
	.loc 1 304 0
	mov	w0, 0
	.loc 1 307 0
	ldp	x29, x30, [sp], 48
	.cfi_restore 30
	.cfi_restore 29
	.cfi_def_cfa 31, 0
	ret
.LVL212:
.L168:
	.cfi_restore_state
.LBB478:
.LBB476:
	mov	x1, x3
	mov	w2, w4
	bl	match_url_string.part.4
.LVL213:
.LBE476:
.LBE478:
	ldr	x19, [sp,16]
	.cfi_restore 19
.LVL214:
.LBB479:
.LBB477:
	uxtb	w0, w0
.LBE477:
.LBE479:
	ldp	x29, x30, [sp], 48
	.cfi_restore 29
	.cfi_restore 30
	.cfi_def_cfa 31, 0
	ret
	.cfi_endproc
.LFE1568:
	.size	match_ab_string, .-match_ab_string
	.align	2
	.type	match_uid_url.part.5, %function
match_uid_url.part.5:
.LFB1580:
	.loc 1 361 0
	.cfi_startproc
.LVL215:
	stp	x29, x30, [sp, -48]!
	.cfi_def_cfa_offset 48
	.cfi_offset 29, -48
	.cfi_offset 30, -40
	add	x29, sp, 0
	.cfi_def_cfa_register 29
	stp	x19, x20, [sp,16]
	.cfi_offset 19, -32
	.cfi_offset 20, -24
.LBB480:
	.loc 1 368 0
	mov	x20, x0
.LBE480:
	.loc 1 361 0
	str	x21, [sp,32]
	.cfi_offset 21, -16
	.loc 1 361 0
	mov	x21, x1
.LBB481:
	.loc 1 368 0
	ldr	x19, [x20,24]!
.LVL216:
.LBE481:
	.loc 1 368 0 is_stmt 0 discriminator 1
	cmp	x19, x20
	bne	.L181
	b	.L174
.L172:
.LBB482:
	.loc 1 368 0 discriminator 2
	ldr	x19, [x19]
.LBE482:
	.loc 1 368 0 discriminator 1
	cmp	x19, x20
	beq	.L174
.L181:
	.loc 1 369 0 is_stmt 1
	ldr	w2, [x19,24]
	cbz	w2, .L172
	.loc 1 370 0
	ldr	x1, [x19,16]
.LBB483:
.LBB484:
	.loc 1 333 0
	cbz	x1, .L172
	mov	x0, x21
.LVL217:
	bl	match_url_string.part.4
.LVL218:
	uxtb	w0, w0
.LBE484:
.LBE483:
	.loc 1 370 0
	cbz	w0, .L172
	.loc 1 372 0
	ldr	x1, [x19,16]
	adrp	x0, .LC9
	add	x0, x0, :lo12:.LC9
	bl	printk
.LVL219:
	.loc 1 374 0
	mov	w0, 1
.LVL220:
	b	.L171
.LVL221:
.L174:
	.loc 1 364 0
	mov	w0, 0
.LVL222:
.L171:
	.loc 1 380 0
	ldp	x19, x20, [sp,16]
	.cfi_restore 20
	.cfi_restore 19
.LVL223:
.LVL224:
	ldr	x21, [sp,32]
	.cfi_restore 21
	ldp	x29, x30, [sp], 48
	.cfi_restore 30
	.cfi_restore 29
	.cfi_def_cfa 31, 0
	ret
	.cfi_endproc
.LFE1580:
	.size	match_uid_url.part.5, .-match_uid_url.part.5
	.align	2
	.global	match_uid_url
	.type	match_uid_url, %function
match_uid_url:
.LFB1570:
	.loc 1 362 0
	.cfi_startproc
.LVL225:
	stp	x29, x30, [sp, -16]!
	.cfi_def_cfa_offset 16
	.cfi_offset 29, -16
	.cfi_offset 30, -8
	add	x29, sp, 0
	.cfi_def_cfa_register 29
	.loc 1 365 0
	cbz	x0, .L188
	cbz	x1, .L188
	bl	match_uid_url.part.5
.LVL226:
	uxtb	w0, w0
	.loc 1 380 0
	ldp	x29, x30, [sp], 16
	.cfi_remember_state
	.cfi_restore 30
	.cfi_restore 29
	.cfi_def_cfa 31, 0
	ret
.LVL227:
.L188:
	.cfi_restore_state
	.loc 1 366 0
	mov	w0, 0
.LVL228:
	.loc 1 380 0
	ldp	x29, x30, [sp], 16
	.cfi_restore 29
	.cfi_restore 30
	.cfi_def_cfa 31, 0
	ret
	.cfi_endproc
.LFE1570:
	.size	match_uid_url, .-match_uid_url
	.align	2
	.global	match_ad_url
	.type	match_ad_url, %function
match_ad_url:
.LFB1571:
	.loc 1 383 0
	.cfi_startproc
.LVL229:
	stp	x29, x30, [sp, -80]!
	.cfi_def_cfa_offset 80
	.cfi_offset 29, -80
	.cfi_offset 30, -72
	add	x29, sp, 0
	.cfi_def_cfa_register 29
	stp	x21, x22, [sp,32]
	.cfi_offset 21, -48
	.cfi_offset 22, -40
	mov	x21, x0
	.loc 1 385 0
	mov	w0, w1
.LVL230:
	.loc 1 383 0
	stp	x19, x20, [sp,16]
	str	x2, [x29,72]
	.cfi_offset 19, -64
	.cfi_offset 20, -56
	mov	w19, w1
	str	x23, [sp,48]
	.cfi_offset 23, -32
	.loc 1 383 0
	str	x3, [x29,64]
	.loc 1 385 0
	bl	get_hash_id
.LVL231:
	.loc 1 389 0
	ldr	x2, [x29,72]
.LVL232:
	cmp	x21, xzr
	cset	w1, eq
	.loc 1 385 0
	uxtw	x20, w0
	.loc 1 389 0
	cmp	x2, xzr
	cset	w0, eq
	.loc 1 391 0
	cmn	w19, #1
	.loc 1 389 0
	orr	w0, w1, w0
	.loc 1 391 0
	cset	w1, eq
	.loc 1 393 0
	orr	w0, w1, w0
	cbnz	w0, .L194
.LVL233:
	cmp	w20, 255
	ldr	x3, [x29,64]
.LVL234:
	bhi	.L194
	.loc 1 396 0
	mov	w1, w3
	mov	x0, x2
	str	x3, [x29,72]
	str	x2, [x29,64]
	bl	get_url_form_data
.LVL235:
	.loc 1 398 0
	ldr	x3, [x29,72]
.LVL236:
	.loc 1 396 0
	mov	x23, x0
.LVL237:
	.loc 1 398 0
	cbz	x0, .L210
.L193:
.LBB485:
.LBB486:
	.loc 2 307 0
	lsl	x22, x20, 5
	sub	x22, x22, x20, lsl 3
.LBE486:
.LBE485:
.LBB488:
	.loc 1 407 0
	lsl	x20, x20, 4
.LVL238:
.LBE488:
.LBB489:
.LBB487:
	.loc 2 307 0
	add	x22, x22, 4096
	add	x22, x21, x22
	mov	x0, x22
	bl	_raw_spin_lock_bh
.LVL239:
.LBE487:
.LBE489:
.LBB490:
	.loc 1 407 0
	ldr	x0, [x21,x20]
.LVL240:
	add	x2, x21, x20
.LBE490:
	.loc 1 407 0 is_stmt 0 discriminator 1
	cmp	x0, x2
	bne	.L200
	b	.L202
.L199:
.LBB491:
	.loc 1 407 0 discriminator 2
	ldr	x0, [x0]
.LBE491:
	.loc 1 407 0 discriminator 1
	cmp	x0, x2
	beq	.L202
.L200:
	.loc 1 408 0 is_stmt 1
	ldr	w1, [x0,16]
	cmp	w1, w19
	bne	.L199
	.loc 1 386 0
	mov	w19, 0
.LVL241:
.LBB492:
.LBB493:
	.loc 1 365 0
	cbnz	x0, .L211
.L196:
.LBE493:
.LBE492:
.LBB495:
.LBB496:
	.loc 2 352 0
	mov	x0, x22
.LVL242:
	bl	_raw_spin_unlock_bh
.LVL243:
.LBE496:
.LBE495:
	.loc 1 414 0
	mov	x0, x23
	bl	kfree
.LVL244:
	.loc 1 416 0
	ldr	x23, [sp,48]
	.cfi_remember_state
	.cfi_restore 23
.LVL245:
	.loc 1 415 0
	mov	w0, w19
	.loc 1 416 0
	ldp	x19, x20, [sp,16]
	.cfi_restore 19
	.cfi_restore 20
.LVL246:
	ldp	x21, x22, [sp,32]
	.cfi_restore 21
	.cfi_restore 22
.LVL247:
	ldp	x29, x30, [sp], 80
	.cfi_restore 29
	.cfi_restore 30
	.cfi_def_cfa 31, 0
	ret
.LVL248:
.L210:
	.cfi_restore_state
	.loc 1 399 0
	add	w0, w3, 1
.LVL249:
.LBB497:
.LBB498:
	.loc 3 500 0
	mov	w1, 32
	movk	w1, 0x208, lsl 16
	sxtw	x0, w0
	bl	__kmalloc
.LVL250:
	mov	x23, x0
.LBE498:
.LBE497:
	.loc 1 400 0
	ldr	x3, [x29,72]
.LVL251:
	ldr	x2, [x29,64]
.LVL252:
	cbnz	x0, .L212
.L194:
	.loc 1 416 0
	ldp	x19, x20, [sp,16]
	.cfi_remember_state
	.cfi_restore 20
	.cfi_restore 19
.LVL253:
	ldp	x21, x22, [sp,32]
	.cfi_restore 22
	.cfi_restore 21
.LVL254:
	ldr	x23, [sp,48]
	.cfi_restore 23
	.loc 1 394 0
	mov	w0, 0
.LVL255:
	.loc 1 416 0
	ldp	x29, x30, [sp], 80
	.cfi_restore 30
	.cfi_restore 29
	.cfi_def_cfa 31, 0
	ret
.LVL256:
.L202:
	.cfi_restore_state
	.loc 1 386 0
	mov	w19, 0
.LVL257:
	b	.L196
.L211:
.LBB499:
.LBB494:
	mov	x1, x23
	bl	match_uid_url.part.5
.LVL258:
	uxtb	w19, w0
	b	.L196
.LVL259:
.L212:
.LBE494:
.LBE499:
	.loc 1 402 0
	sxtw	x22, w3
	mov	x1, x2
	mov	x2, x22
.LVL260:
	bl	memcpy
.LVL261:
	.loc 1 403 0
	strb	wzr, [x23,x22]
	.loc 1 404 0
	ldr	w0, [x21,10240]
	cbz	w0, .L201
	.loc 1 404 0 is_stmt 0 discriminator 2
	adrp	x1, .LC2
	add	x1, x1, :lo12:.LC2
.L195:
	.loc 1 404 0 discriminator 4
	adrp	x0, .LC10
	add	x0, x0, :lo12:.LC10
	bl	printk
.LVL262:
	b	.L193
.L201:
	.loc 1 404 0 discriminator 1
	adrp	x1, .LC1
	add	x1, x1, :lo12:.LC1
	b	.L195
	.cfi_endproc
.LFE1571:
	.size	match_ad_url, .-match_ad_url
	.align	2
	.global	output_ad_rule
	.type	output_ad_rule, %function
output_ad_rule:
.LFB1572:
	.loc 1 419 0 is_stmt 1
	.cfi_startproc
.LVL263:
	stp	x29, x30, [sp, -112]!
	.cfi_def_cfa_offset 112
	.cfi_offset 29, -112
	.cfi_offset 30, -104
	add	x29, sp, 0
	.cfi_def_cfa_register 29
	stp	x19, x20, [sp,16]
	stp	x21, x22, [sp,32]
	stp	x23, x24, [sp,48]
	stp	x25, x26, [sp,64]
	stp	x27, x28, [sp,80]
	.cfi_offset 19, -96
	.cfi_offset 20, -88
	.cfi_offset 21, -80
	.cfi_offset 22, -72
	.cfi_offset 23, -64
	.cfi_offset 24, -56
	.cfi_offset 25, -48
	.cfi_offset 26, -40
	.cfi_offset 27, -32
	.cfi_offset 28, -24
	.loc 1 424 0
	cbnz	x0, .L237
.LVL264:
.L213:
	.loc 1 440 0
	ldp	x19, x20, [sp,16]
	.cfi_remember_state
	.cfi_restore 20
	.cfi_restore 19
	ldp	x21, x22, [sp,32]
	.cfi_restore 22
	.cfi_restore 21
.LVL265:
	ldp	x23, x24, [sp,48]
	.cfi_restore 24
	.cfi_restore 23
	ldp	x25, x26, [sp,64]
	.cfi_restore 26
	.cfi_restore 25
	ldp	x27, x28, [sp,80]
	.cfi_restore 28
	.cfi_restore 27
	ldp	x29, x30, [sp], 112
	.cfi_restore 30
	.cfi_restore 29
	.cfi_def_cfa 31, 0
	ret
.L237:
	.cfi_restore_state
	.loc 1 426 0
	ldr	w1, [x0,10240]
	cbz	w1, .L226
	.loc 1 426 0 is_stmt 0 discriminator 2
	adrp	x1, .LC2
	add	x1, x1, :lo12:.LC2
.L215:
	mov	x19, x0
	.loc 1 426 0 discriminator 4
	adrp	x0, .LC11
.LVL266:
	add	x0, x0, :lo12:.LC11
	add	x23, x19, 8192
	.loc 1 430 0 is_stmt 1 discriminator 1
	adrp	x25, .LC1
	.loc 1 430 0 is_stmt 0 discriminator 2
	adrp	x24, .LC2
	.loc 1 426 0 is_stmt 1 discriminator 4
	bl	printk
.LVL267:
	.loc 1 432 0 discriminator 4
	adrp	x26, .LC13
	add	x0, x26, :lo12:.LC13
	add	x20, x19, 4096
	mov	x21, x19
	add	x23, x23, 2048
	.loc 1 430 0 discriminator 1
	add	x25, x25, :lo12:.LC1
	.loc 1 430 0 is_stmt 0 discriminator 2
	add	x24, x24, :lo12:.LC2
	.loc 1 432 0 is_stmt 1 discriminator 4
	str	x0, [x29,104]
.LVL268:
.L217:
.LBB500:
.LBB501:
	.loc 2 307 0
	mov	x0, x20
	bl	_raw_spin_lock_bh
.LVL269:
.LBE501:
.LBE500:
.LBB502:
	.loc 1 429 0
	ldr	x22, [x21]
.LBE502:
	.loc 1 429 0 is_stmt 0 discriminator 1
	cmp	x22, x21
	bne	.L216
.L224:
.LBB503:
.LBB504:
	.loc 2 352 0 is_stmt 1
	mov	x0, x20
	add	x20, x20, 24
	add	x21, x21, 16
	bl	_raw_spin_unlock_bh
.LVL270:
.LBE504:
.LBE503:
	.loc 1 427 0 discriminator 1
	cmp	x20, x23
	bne	.L217
	.loc 1 439 0
	ldr	w0, [x19,10240]
	cbz	w0, .L229
	.loc 1 439 0 is_stmt 0 discriminator 2
	adrp	x1, .LC2
	add	x1, x1, :lo12:.LC2
.L225:
	.loc 1 439 0 discriminator 4
	adrp	x0, .LC15
	add	x0, x0, :lo12:.LC15
	bl	printk
.LVL271:
	b	.L213
.LVL272:
.L226:
	.loc 1 426 0 is_stmt 1 discriminator 1
	adrp	x1, .LC1
	add	x1, x1, :lo12:.LC1
	b	.L215
.LVL273:
.L229:
	.loc 1 439 0 discriminator 1
	adrp	x1, .LC1
	add	x1, x1, :lo12:.LC1
	b	.L225
.L216:
	adrp	x28, .LC12
	adrp	x27, .LC14
.L223:
	.loc 1 430 0
	ldr	w1, [x19,10240]
.LBB505:
	.loc 1 431 0
	mov	x26, x22
.LBE505:
	.loc 1 430 0 discriminator 4
	ldr	w2, [x22,16]
	add	x0, x28, :lo12:.LC12
	.loc 1 430 0 is_stmt 0 discriminator 2
	cmp	w1, wzr
	csel	x1, x25, x24, eq
	.loc 1 430 0 discriminator 4
	bl	printk
.LVL274:
.LBB506:
	.loc 1 431 0 is_stmt 1
	ldr	x4, [x26,24]!
.LVL275:
.L220:
.LBE506:
	.loc 1 431 0 is_stmt 0 discriminator 1
	cmp	x4, x26
	bne	.L222
	.loc 1 435 0 is_stmt 1
	add	x0, x27, :lo12:.LC14
	bl	printk
.LVL276:
.LBB507:
	.loc 1 429 0 discriminator 2
	ldr	x22, [x22]
.LBE507:
	.loc 1 429 0 is_stmt 0 discriminator 1
	cmp	x22, x21
	beq	.L224
	b	.L223
.LVL277:
.L222:
	.loc 1 432 0 is_stmt 1
	ldr	w1, [x19,10240]
	.loc 1 432 0 is_stmt 0 discriminator 4
	ldr	x2, [x4,16]
	.loc 1 432 0 discriminator 2
	cmp	w1, wzr
	.loc 1 432 0 discriminator 4
	ldr	w3, [x4,24]
	ldr	x0, [x29,104]
	.loc 1 432 0 discriminator 2
	csel	x1, x25, x24, eq
	.loc 1 432 0 discriminator 4
	str	x4, [x29,96]
	bl	printk
.LVL278:
.LBB508:
	.loc 1 431 0 is_stmt 1 discriminator 2
	ldr	x4, [x29,96]
.LVL279:
	ldr	x4, [x4]
	b	.L220
.LBE508:
	.cfi_endproc
.LFE1572:
	.size	output_ad_rule, .-output_ad_rule
	.align	2
	.global	init_ad
	.type	init_ad, %function
init_ad:
.LFB1573:
	.loc 1 443 0
	.cfi_startproc
	stp	x29, x30, [sp, -80]!
	.cfi_def_cfa_offset 80
	.cfi_offset 29, -80
	.cfi_offset 30, -72
	add	x29, sp, 0
	.cfi_def_cfa_register 29
	stp	x21, x22, [sp,32]
	.cfi_offset 21, -48
	.cfi_offset 22, -40
	.loc 1 445 0
	adrp	x22, .LANCHOR1
	adrp	x21, .LANCHOR3
	.loc 1 443 0
	stp	x19, x20, [sp,16]
	.loc 1 445 0
	add	x2, x22, :lo12:.LANCHOR1
	.cfi_offset 19, -64
	.cfi_offset 20, -56
	.loc 1 447 0
	adrp	x19, .LANCHOR2
	.loc 1 446 0
	sub	x1, x2, #224
	.loc 1 447 0
	add	x0, x19, :lo12:.LANCHOR2
	.loc 1 443 0
	stp	x23, x24, [sp,48]
	stp	x25, x26, [sp,64]
	.cfi_offset 23, -32
	.cfi_offset 24, -24
	.cfi_offset 25, -16
	.cfi_offset 26, -8
	add	x23, x2, 3872
.LBB509:
	.loc 1 453 0 discriminator 1
	add	x24, x21, :lo12:.LANCHOR3
	adrp	x25, .LC16
.LBE509:
	.loc 1 445 0
	str	wzr, [x2,-232]
	.loc 1 446 0
	str	wzr, [x2,10016]
	mov	x20, x1
	.loc 1 447 0
	mov	w2, 1
	mov	x26, x23
	str	w2, [x0,11568]
.LBB510:
	.loc 1 453 0 discriminator 1
	add	x25, x25, :lo12:.LC16
.LBE510:
	.loc 1 448 0
	str	xzr, [x1,10248]
.LBB511:
	.loc 1 453 0 discriminator 1
	add	x24, x24, 2880
.LBE511:
	.loc 1 449 0
	str	xzr, [x0,11576]
.L239:
.LBB512:
	.loc 1 453 0 discriminator 1
	mov	x0, x23
.LBE512:
.LBB513:
.LBB514:
.LBB515:
.LBB516:
.LBB517:
	.loc 5 276 0
	str	x20, [x20]
.LBE517:
.LBE516:
.LBE515:
	.loc 4 28 0
	str	x20, [x20,8]
.LBE514:
.LBE513:
.LBB518:
	.loc 1 453 0 discriminator 1
	mov	x1, x25
	mov	x2, x24
	add	x20, x20, 16
	add	x23, x23, 24
	bl	__raw_spin_lock_init
.LVL280:
.LBE518:
	.loc 1 451 0 discriminator 1
	cmp	x20, x26
	bne	.L239
	add	x19, x19, :lo12:.LANCHOR2
.LBB519:
	.loc 1 457 0 discriminator 1
	adrp	x23, .LC17
	add	x19, x19, 1328
	add	x23, x23, :lo12:.LC17
	add	x20, x19, 4096
	mov	x25, x20
.L240:
	mov	x0, x20
.LBE519:
.LBB520:
.LBB521:
.LBB522:
.LBB523:
.LBB524:
	.loc 5 276 0
	str	x19, [x19]
.LBE524:
.LBE523:
.LBE522:
	.loc 4 28 0
	str	x19, [x19,8]
.LBE521:
.LBE520:
.LBB525:
	.loc 1 457 0 discriminator 1
	mov	x1, x23
	mov	x2, x24
	add	x19, x19, 16
	add	x20, x20, 24
	bl	__raw_spin_lock_init
.LVL281:
.LBE525:
	.loc 1 455 0 discriminator 1
	cmp	x19, x25
	bne	.L240
	adrp	x0, .LANCHOR0
	add	x0, x0, :lo12:.LANCHOR0
	add	x1, x0, 4096
	add	x0, x0, 16
	add	x1, x1, 16
.L241:
	.loc 1 460 0
	str	xzr, [x0]
	add	x0, x0, 32
	.loc 1 459 0 discriminator 1
	cmp	x0, x1
	.loc 1 461 0
	str	wzr, [x0,-24]
	.loc 1 459 0 discriminator 1
	bne	.L241
.LBB526:
	.loc 1 463 0 discriminator 1
	add	x0, x22, :lo12:.LANCHOR1
	add	x2, x21, :lo12:.LANCHOR3
	adrp	x1, .LC18
	sub	x0, x0, #256
	add	x1, x1, :lo12:.LC18
	add	x2, x2, 2880
	bl	__raw_spin_lock_init
.LVL282:
.LBE526:
	.loc 1 464 0
	ldp	x19, x20, [sp,16]
	.cfi_restore 20
	.cfi_restore 19
	ldp	x21, x22, [sp,32]
	.cfi_restore 22
	.cfi_restore 21
	ldp	x23, x24, [sp,48]
	.cfi_restore 24
	.cfi_restore 23
	ldp	x25, x26, [sp,64]
	.cfi_restore 26
	.cfi_restore 25
	ldp	x29, x30, [sp], 80
	.cfi_restore 30
	.cfi_restore 29
	.cfi_def_cfa 31, 0
	ret
	.cfi_endproc
.LFE1573:
	.size	init_ad, .-init_ad
	.align	2
	.global	uninit_ad
	.type	uninit_ad, %function
uninit_ad:
.LFB1574:
	.loc 1 467 0
	.cfi_startproc
	stp	x29, x30, [sp, -32]!
	.cfi_def_cfa_offset 32
	.cfi_offset 29, -32
	.cfi_offset 30, -24
.LBB535:
.LBB536:
	.loc 1 259 0
	adrp	x0, .LANCHOR1
.LBE536:
.LBE535:
	.loc 1 467 0
	add	x29, sp, 0
	.cfi_def_cfa_register 29
.LBB540:
.LBB537:
	.loc 1 259 0
	add	x0, x0, :lo12:.LANCHOR1
.LBE537:
.LBE540:
	.loc 1 467 0
.LBB541:
.LBB538:
	.loc 1 259 0
	subs	x0, x0, #224
.LBE538:
.LBE541:
	.loc 1 467 0
	stp	x19, x20, [sp,16]
	.cfi_offset 19, -16
	.cfi_offset 20, -8
.LBB542:
.LBB539:
	.loc 1 259 0
	beq	.L246
	bl	clear_ad_rule.part.3
.LVL283:
.L246:
.LBE539:
.LBE542:
.LBB543:
.LBB544:
	adrp	x0, .LANCHOR2
	add	x0, x0, :lo12:.LANCHOR2
	adds	x0, x0, 1328
	beq	.L247
	bl	clear_ad_rule.part.3
.LVL284:
.L247:
	adrp	x19, .LANCHOR0
	add	x19, x19, :lo12:.LANCHOR0
	add	x20, x19, 4096
	add	x19, x19, 16
	add	x20, x20, 16
.L248:
.LBE544:
.LBE543:
	.loc 1 473 0
	ldr	x0, [x19]
	add	x19, x19, 32
	bl	kfree
.LVL285:
	.loc 1 474 0
	str	xzr, [x19,-32]
	.loc 1 475 0
	str	wzr, [x19,-24]
	.loc 1 472 0 discriminator 1
	cmp	x19, x20
	bne	.L248
	.loc 1 477 0
	ldp	x19, x20, [sp,16]
	.cfi_restore 20
	.cfi_restore 19
	ldp	x29, x30, [sp], 32
	.cfi_restore 30
	.cfi_restore 29
	.cfi_def_cfa 31, 0
	ret
	.cfi_endproc
.LFE1574:
	.size	uninit_ad, .-uninit_ad
	.global	g_deltalist_info
	.global	g_adlist_info
	.section	.rodata.str1.8,"aMS",%progbits,1
	.align	3
.LC0:
	.string	"\0016hwad: already in list url=%s"
	.zero	1
.LC1:
	.string	"ad"
	.zero	5
.LC2:
	.string	"delta"
	.zero	2
.LC3:
	.string	"\0016hwad:url to list>=MAX_HASH id=%u\n"
	.zero	4
.LC4:
	.string	"\0016hwad:add_%s_rule_to_list newuid=%u url=<%s>\n"
	.zero	1
.LC5:
	.string	"\0016hwad:clear_%s_rule\n"
	.zero	2
.LC6:
	.string	""
	.zero	7
.LC7:
	.string	"\0016hwad:match_%s_uid>=MAX_hid=%uuid=%u\n"
	.zero	1
.LC8:
	.string	"*"
	.zero	6
.LC9:
	.string	"\0016hwad: match_url_string true rule=%s\n"
	.zero	1
.LC10:
	.string	"\0016hwad:match_%s_url multi part\n"
.LC11:
	.string	"\0016hwad:output_%s_rule start\n"
	.zero	3
.LC12:
	.string	"\0016hwad:output_%s_rule uid=%d\n"
	.zero	2
.LC13:
	.string	"\0016hwad:output_%s_rule=%s len=%d\n"
	.zero	7
.LC14:
	.string	"\0016\n"
	.zero	4
.LC15:
	.string	"\0016hwad: output_%s_rule  end\n"
	.zero	3
.LC16:
	.string	"&(&g_adlist_info.lock[i])->rlock"
	.zero	7
.LC17:
	.string	"&(&g_deltalist_info.lock[i])->rlock"
	.zero	4
.LC18:
	.string	"&(&g_droplock)->rlock"
	.bss
	.align	3
.LANCHOR0 = . + 0
.LANCHOR1 = . + 4352
.LANCHOR2 = . + 13056
.LANCHOR3 = . + 21760
	.type	g_droparr, %object
	.size	g_droparr, 4096
g_droparr:
	.zero	4096
	.type	g_droplock, %object
	.size	g_droplock, 24
g_droplock:
	.zero	24
	.type	g_curcount, %object
	.size	g_curcount, 4
g_curcount:
	.zero	4
	.zero	4
	.type	g_adlist_info, %object
	.size	g_adlist_info, 10256
g_adlist_info:
	.zero	10256
	.type	g_deltalist_info, %object
	.size	g_deltalist_info, 10256
g_deltalist_info:
	.zero	10256
	.type	__key.18478, %object
	.size	__key.18478, 0
__key.18478:
	.type	__key.18482, %object
	.size	__key.18482, 0
__key.18482:
	.type	__key.18489, %object
	.size	__key.18489, 0
__key.18489:
	.text
.Letext0:
	.file 6 "/mnt/disk/jenkins/ci/workspace/chipset_patch_970_docker/opensource/component_code/vendor/huawei/extra/build/build_script/kirin_kernel_release/kernel/include/uapi/asm-generic/int-ll64.h"
	.file 7 "/mnt/disk/jenkins/ci/workspace/chipset_patch_970_docker/opensource/component_code/vendor/huawei/extra/build/build_script/kirin_kernel_release/kernel/include/asm-generic/int-ll64.h"
	.file 8 "/mnt/disk/jenkins/ci/workspace/chipset_patch_970_docker/opensource/component_code/vendor/huawei/extra/build/build_script/kirin_kernel_release/kernel/include/uapi/asm-generic/posix_types.h"
	.file 9 "/mnt/disk/jenkins/ci/workspace/chipset_patch_970_docker/opensource/component_code/vendor/huawei/extra/build/build_script/kirin_kernel_release/kernel/include/linux/types.h"
	.file 10 "/mnt/disk/jenkins/ci/workspace/chipset_patch_970_docker/opensource/component_code/vendor/huawei/extra/build/build_script/kirin_kernel_release/kernel/include/linux/capability.h"
	.file 11 "/mnt/disk/jenkins/ci/workspace/chipset_patch_970_docker/opensource/component_code/vendor/huawei/extra/build/build_script/kirin_kernel_release/kernel/include/linux/restart_block.h"
	.file 12 "/mnt/disk/jenkins/ci/workspace/chipset_patch_970_docker/opensource/component_code/vendor/huawei/extra/build/build_script/kirin_kernel_release/kernel/include/uapi/linux/time.h"
	.file 13 "/mnt/disk/jenkins/ci/workspace/chipset_patch_970_docker/opensource/component_code/vendor/huawei/extra/build/build_script/kirin_kernel_release/kernel/arch/arm64/include/asm/compat.h"
	.file 14 "/mnt/disk/jenkins/ci/workspace/chipset_patch_970_docker/opensource/component_code/vendor/huawei/extra/build/build_script/kirin_kernel_release/kernel/arch/arm64/include/asm/thread_info.h"
	.file 15 "/mnt/disk/jenkins/ci/workspace/chipset_patch_970_docker/opensource/component_code/vendor/huawei/extra/build/build_script/kirin_kernel_release/kernel/arch/arm64/include/uapi/asm/ptrace.h"
	.file 16 "/mnt/disk/jenkins/ci/workspace/chipset_patch_970_docker/opensource/component_code/vendor/huawei/extra/build/build_script/kirin_kernel_release/kernel/arch/arm64/include/asm/spinlock_types.h"
	.file 17 "/mnt/disk/jenkins/ci/workspace/chipset_patch_970_docker/opensource/component_code/vendor/huawei/extra/build/build_script/kirin_kernel_release/kernel/include/linux/spinlock_types.h"
	.file 18 "/mnt/disk/jenkins/ci/workspace/chipset_patch_970_docker/opensource/component_code/vendor/huawei/extra/build/build_script/kirin_kernel_release/kernel/arch/arm64/include/asm/fpsimd.h"
	.file 19 "/mnt/disk/jenkins/ci/workspace/chipset_patch_970_docker/opensource/component_code/vendor/huawei/extra/build/build_script/kirin_kernel_release/kernel/include/linux/jump_label.h"
	.file 20 "/mnt/disk/jenkins/ci/workspace/chipset_patch_970_docker/opensource/component_code/vendor/huawei/extra/build/build_script/kirin_kernel_release/kernel/include/asm-generic/atomic-long.h"
	.file 21 "/mnt/disk/jenkins/ci/workspace/chipset_patch_970_docker/opensource/component_code/vendor/huawei/extra/build/build_script/kirin_kernel_release/kernel/arch/arm64/include/asm/processor.h"
	.file 22 "/mnt/disk/jenkins/ci/workspace/chipset_patch_970_docker/opensource/component_code/vendor/huawei/extra/build/build_script/kirin_kernel_release/kernel/include/linux/seqlock.h"
	.file 23 "/mnt/disk/jenkins/ci/workspace/chipset_patch_970_docker/opensource/component_code/vendor/huawei/extra/build/build_script/kirin_kernel_release/kernel/include/linux/plist.h"
	.file 24 "/mnt/disk/jenkins/ci/workspace/chipset_patch_970_docker/opensource/component_code/vendor/huawei/extra/build/build_script/kirin_kernel_release/kernel/include/linux/cpumask.h"
	.file 25 "/mnt/disk/jenkins/ci/workspace/chipset_patch_970_docker/opensource/component_code/vendor/huawei/extra/build/build_script/kirin_kernel_release/kernel/include/linux/wait.h"
	.file 26 "/mnt/disk/jenkins/ci/workspace/chipset_patch_970_docker/opensource/component_code/vendor/huawei/extra/build/build_script/kirin_kernel_release/kernel/include/linux/completion.h"
	.file 27 "/mnt/disk/jenkins/ci/workspace/chipset_patch_970_docker/opensource/component_code/vendor/huawei/extra/build/build_script/kirin_kernel_release/kernel/include/linux/ktime.h"
	.file 28 "/mnt/disk/jenkins/ci/workspace/chipset_patch_970_docker/opensource/component_code/vendor/huawei/extra/build/build_script/kirin_kernel_release/kernel/include/linux/rbtree.h"
	.file 29 "/mnt/disk/jenkins/ci/workspace/chipset_patch_970_docker/opensource/component_code/vendor/huawei/extra/build/build_script/kirin_kernel_release/kernel/include/linux/nodemask.h"
	.file 30 "/mnt/disk/jenkins/ci/workspace/chipset_patch_970_docker/opensource/component_code/vendor/huawei/extra/build/build_script/kirin_kernel_release/kernel/include/linux/osq_lock.h"
	.file 31 "/mnt/disk/jenkins/ci/workspace/chipset_patch_970_docker/opensource/component_code/vendor/huawei/extra/build/build_script/kirin_kernel_release/kernel/include/linux/rwsem.h"
	.file 32 "/mnt/disk/jenkins/ci/workspace/chipset_patch_970_docker/opensource/component_code/vendor/huawei/extra/build/build_script/kirin_kernel_release/kernel/include/linux/sched.h"
	.file 33 "/mnt/disk/jenkins/ci/workspace/chipset_patch_970_docker/opensource/component_code/vendor/huawei/extra/build/build_script/kirin_kernel_release/kernel/include/linux/mm_types.h"
	.file 34 "/mnt/disk/jenkins/ci/workspace/chipset_patch_970_docker/opensource/component_code/vendor/huawei/extra/build/build_script/kirin_kernel_release/kernel/include/linux/lockdep.h"
	.file 35 "/mnt/disk/jenkins/ci/workspace/chipset_patch_970_docker/opensource/component_code/vendor/huawei/extra/build/build_script/kirin_kernel_release/kernel/include/linux/uprobes.h"
	.file 36 "/mnt/disk/jenkins/ci/workspace/chipset_patch_970_docker/opensource/component_code/vendor/huawei/extra/build/build_script/kirin_kernel_release/kernel/include/linux/uidgid.h"
	.file 37 "/mnt/disk/jenkins/ci/workspace/chipset_patch_970_docker/opensource/component_code/vendor/huawei/extra/build/build_script/kirin_kernel_release/kernel/include/linux/workqueue.h"
	.file 38 "/mnt/disk/jenkins/ci/workspace/chipset_patch_970_docker/opensource/component_code/vendor/huawei/extra/build/build_script/kirin_kernel_release/kernel/include/linux/stddef.h"
	.file 39 "/mnt/disk/jenkins/ci/workspace/chipset_patch_970_docker/opensource/component_code/vendor/huawei/extra/build/build_script/kirin_kernel_release/kernel/include/uapi/linux/personality.h"
	.file 40 "/mnt/disk/jenkins/ci/workspace/chipset_patch_970_docker/opensource/component_code/vendor/huawei/extra/build/build_script/kirin_kernel_release/kernel/arch/arm64/include/asm/pgtable-types.h"
	.file 41 "/mnt/disk/jenkins/ci/workspace/chipset_patch_970_docker/opensource/component_code/vendor/huawei/extra/build/build_script/kirin_kernel_release/kernel/include/linux/llist.h"
	.file 42 "/mnt/disk/jenkins/ci/workspace/chipset_patch_970_docker/opensource/component_code/vendor/huawei/extra/build/build_script/kirin_kernel_release/kernel/arch/arm64/include/asm/smp.h"
	.file 43 "/mnt/disk/jenkins/ci/workspace/chipset_patch_970_docker/opensource/component_code/vendor/huawei/extra/build/build_script/kirin_kernel_release/kernel/include/linux/percpu.h"
	.file 44 "/mnt/disk/jenkins/ci/workspace/chipset_patch_970_docker/opensource/component_code/vendor/huawei/extra/build/build_script/kirin_kernel_release/kernel/arch/arm64/include/asm/mmu.h"
	.file 45 "/mnt/disk/jenkins/ci/workspace/chipset_patch_970_docker/opensource/component_code/vendor/huawei/extra/build/build_script/kirin_kernel_release/kernel/include/asm-generic/cputime_jiffies.h"
	.file 46 "/mnt/disk/jenkins/ci/workspace/chipset_patch_970_docker/opensource/component_code/vendor/huawei/extra/build/build_script/kirin_kernel_release/kernel/include/uapi/asm-generic/signal.h"
	.file 47 "/mnt/disk/jenkins/ci/workspace/chipset_patch_970_docker/opensource/component_code/vendor/huawei/extra/build/build_script/kirin_kernel_release/kernel/include/uapi/asm-generic/signal-defs.h"
	.file 48 "/mnt/disk/jenkins/ci/workspace/chipset_patch_970_docker/opensource/component_code/vendor/huawei/extra/build/build_script/kirin_kernel_release/kernel/include/uapi/asm-generic/siginfo.h"
	.file 49 "/mnt/disk/jenkins/ci/workspace/chipset_patch_970_docker/opensource/component_code/vendor/huawei/extra/build/build_script/kirin_kernel_release/kernel/include/linux/signal.h"
	.file 50 "/mnt/disk/jenkins/ci/workspace/chipset_patch_970_docker/opensource/component_code/vendor/huawei/extra/build/build_script/kirin_kernel_release/kernel/include/linux/pid.h"
	.file 51 "/mnt/disk/jenkins/ci/workspace/chipset_patch_970_docker/opensource/component_code/vendor/huawei/extra/build/build_script/kirin_kernel_release/kernel/include/linux/mmzone.h"
	.file 52 "/mnt/disk/jenkins/ci/workspace/chipset_patch_970_docker/opensource/component_code/vendor/huawei/extra/build/build_script/kirin_kernel_release/kernel/include/linux/mutex.h"
	.file 53 "/mnt/disk/jenkins/ci/workspace/chipset_patch_970_docker/opensource/component_code/vendor/huawei/extra/build/build_script/kirin_kernel_release/kernel/include/linux/seccomp.h"
	.file 54 "/mnt/disk/jenkins/ci/workspace/chipset_patch_970_docker/opensource/component_code/vendor/huawei/extra/build/build_script/kirin_kernel_release/kernel/include/uapi/linux/resource.h"
	.file 55 "/mnt/disk/jenkins/ci/workspace/chipset_patch_970_docker/opensource/component_code/vendor/huawei/extra/build/build_script/kirin_kernel_release/kernel/include/linux/timerqueue.h"
	.file 56 "/mnt/disk/jenkins/ci/workspace/chipset_patch_970_docker/opensource/component_code/vendor/huawei/extra/build/build_script/kirin_kernel_release/kernel/include/linux/timer.h"
	.file 57 "/mnt/disk/jenkins/ci/workspace/chipset_patch_970_docker/opensource/component_code/vendor/huawei/extra/build/build_script/kirin_kernel_release/kernel/include/linux/hrtimer.h"
	.file 58 "/mnt/disk/jenkins/ci/workspace/chipset_patch_970_docker/opensource/component_code/vendor/huawei/extra/build/build_script/kirin_kernel_release/kernel/include/linux/task_io_accounting.h"
	.file 59 "/mnt/disk/jenkins/ci/workspace/chipset_patch_970_docker/opensource/component_code/vendor/huawei/extra/build/build_script/kirin_kernel_release/kernel/include/linux/assoc_array.h"
	.file 60 "/mnt/disk/jenkins/ci/workspace/chipset_patch_970_docker/opensource/component_code/vendor/huawei/extra/build/build_script/kirin_kernel_release/kernel/include/linux/key.h"
	.file 61 "/mnt/disk/jenkins/ci/workspace/chipset_patch_970_docker/opensource/component_code/vendor/huawei/extra/build/build_script/kirin_kernel_release/kernel/include/linux/cred.h"
	.file 62 "/mnt/disk/jenkins/ci/workspace/chipset_patch_970_docker/opensource/component_code/vendor/huawei/extra/build/build_script/kirin_kernel_release/kernel/include/linux/idr.h"
	.file 63 "/mnt/disk/jenkins/ci/workspace/chipset_patch_970_docker/opensource/component_code/vendor/huawei/extra/build/build_script/kirin_kernel_release/kernel/include/linux/percpu-refcount.h"
	.file 64 "/mnt/disk/jenkins/ci/workspace/chipset_patch_970_docker/opensource/component_code/vendor/huawei/extra/build/build_script/kirin_kernel_release/kernel/include/linux/rcu_sync.h"
	.file 65 "/mnt/disk/jenkins/ci/workspace/chipset_patch_970_docker/opensource/component_code/vendor/huawei/extra/build/build_script/kirin_kernel_release/kernel/include/linux/percpu-rwsem.h"
	.file 66 "/mnt/disk/jenkins/ci/workspace/chipset_patch_970_docker/opensource/component_code/vendor/huawei/extra/build/build_script/kirin_kernel_release/kernel/include/uapi/linux/bpf.h"
	.file 67 "/mnt/disk/jenkins/ci/workspace/chipset_patch_970_docker/opensource/component_code/vendor/huawei/extra/build/build_script/kirin_kernel_release/kernel/include/linux/bpf-cgroup.h"
	.file 68 "/mnt/disk/jenkins/ci/workspace/chipset_patch_970_docker/opensource/component_code/vendor/huawei/extra/build/build_script/kirin_kernel_release/kernel/include/linux/cgroup-defs.h"
	.file 69 "/mnt/disk/jenkins/ci/workspace/chipset_patch_970_docker/opensource/component_code/vendor/huawei/extra/build/build_script/kirin_kernel_release/kernel/include/linux/kernfs.h"
	.file 70 "/mnt/disk/jenkins/ci/workspace/chipset_patch_970_docker/opensource/component_code/vendor/huawei/extra/build/build_script/kirin_kernel_release/kernel/drivers/huawei_platform/net/hw_netfilter/nf_ad_filter.h"
	.file 71 "/mnt/disk/jenkins/ci/workspace/chipset_patch_970_docker/opensource/component_code/vendor/huawei/extra/build/build_script/kirin_kernel_release/kernel/include/asm-generic/bitops/builtin-__fls.h"
	.file 72 "/mnt/disk/jenkins/ci/workspace/chipset_patch_970_docker/opensource/component_code/vendor/huawei/extra/build/build_script/kirin_kernel_release/kernel/include/asm-generic/bitops/fls64.h"
	.file 73 "/mnt/disk/jenkins/ci/workspace/chipset_patch_970_docker/opensource/component_code/vendor/huawei/extra/build/build_script/kirin_kernel_release/kernel/include/linux/log2.h"
	.file 74 "/mnt/disk/jenkins/ci/workspace/chipset_patch_970_docker/opensource/component_code/vendor/huawei/extra/build/build_script/kirin_kernel_release/kernel/include/asm-generic/getorder.h"
	.file 75 "/mnt/disk/jenkins/ci/workspace/chipset_patch_970_docker/opensource/component_code/vendor/huawei/extra/build/build_script/kirin_kernel_release/kernel/arch/arm64/include/asm/cachetype.h"
	.file 76 "/mnt/disk/jenkins/ci/workspace/chipset_patch_970_docker/opensource/component_code/vendor/huawei/extra/build/build_script/kirin_kernel_release/kernel/include/linux/printk.h"
	.file 77 "/mnt/disk/jenkins/ci/workspace/chipset_patch_970_docker/opensource/component_code/vendor/huawei/extra/build/build_script/kirin_kernel_release/kernel/include/linux/kernel.h"
	.file 78 "/mnt/disk/jenkins/ci/workspace/chipset_patch_970_docker/opensource/component_code/vendor/huawei/extra/build/build_script/kirin_kernel_release/kernel/arch/arm64/include/asm/stack_pointer.h"
	.file 79 "/mnt/disk/jenkins/ci/workspace/chipset_patch_970_docker/opensource/component_code/vendor/huawei/extra/build/build_script/kirin_kernel_release/kernel/arch/arm64/include/asm/hwcap.h"
	.file 80 "/mnt/disk/jenkins/ci/workspace/chipset_patch_970_docker/opensource/component_code/vendor/huawei/extra/build/build_script/kirin_kernel_release/kernel/arch/arm64/include/asm/cpufeature.h"
	.file 81 "/mnt/disk/jenkins/ci/workspace/chipset_patch_970_docker/opensource/component_code/vendor/huawei/extra/build/build_script/kirin_kernel_release/kernel/include/asm-generic/sections.h"
	.file 82 "/mnt/disk/jenkins/ci/workspace/chipset_patch_970_docker/opensource/component_code/vendor/huawei/extra/build/build_script/kirin_kernel_release/kernel/arch/arm64/include/asm/virt.h"
	.file 83 "/mnt/disk/jenkins/ci/workspace/chipset_patch_970_docker/opensource/component_code/vendor/huawei/extra/build/build_script/kirin_kernel_release/kernel/include/linux/jiffies.h"
	.file 84 "/mnt/disk/jenkins/ci/workspace/chipset_patch_970_docker/opensource/component_code/vendor/huawei/extra/build/build_script/kirin_kernel_release/kernel/include/linux/highuid.h"
	.file 85 "/mnt/disk/jenkins/ci/workspace/chipset_patch_970_docker/opensource/component_code/vendor/huawei/extra/build/build_script/kirin_kernel_release/kernel/arch/arm64/include/asm/memory.h"
	.file 86 "/mnt/disk/jenkins/ci/workspace/chipset_patch_970_docker/opensource/component_code/vendor/huawei/extra/build/build_script/kirin_kernel_release/kernel/include/linux/ctype.h"
	.file 87 "/mnt/disk/jenkins/ci/workspace/chipset_patch_970_docker/opensource/component_code/vendor/huawei/extra/build/build_script/kirin_kernel_release/kernel/include/linux/spinlock_api_smp.h"
	.file 88 "/mnt/disk/jenkins/ci/workspace/chipset_patch_970_docker/opensource/component_code/vendor/huawei/extra/build/build_script/kirin_kernel_release/kernel/arch/arm64/include/asm/string.h"
	.file 89 "/mnt/disk/jenkins/ci/workspace/chipset_patch_970_docker/opensource/component_code/vendor/huawei/extra/build/build_script/kirin_kernel_release/kernel/drivers/huawei_platform/net/hw_netfilter/nf_hw_common.h"
	.file 90 "<built-in>"
	.section	.note.GNU-stack,"",%progbits
