	.cpu generic+fp+simd
	.file	"pagecache_manage.c"
	.text
.Ltext0:
	.cfi_sections	.debug_frame
	.align	2
	.type	pch_user_statfs, %function
pch_user_statfs:
.LFB2918:
	.file 1 "/mnt/disk/jenkins/ci/workspace/chipset_patch_970_docker/opensource/component_code/vendor/huawei/extra/build/build_script/kirin_kernel_release/kernel/mm/pagecache_manage.c"
	.loc 1 785 0
	.cfi_startproc
	stp	x29, x30, [sp, -176]!
	.cfi_def_cfa_offset 176
	.cfi_offset 29, -176
	.cfi_offset 30, -168
	.loc 1 793 0
	mov	x1, 120
	mov	w2, 0
	.loc 1 785 0
	add	x29, sp, 0
	.cfi_def_cfa_register 29
	stp	x19, x20, [sp,16]
	.cfi_offset 19, -160
	.cfi_offset 20, -152
	.loc 1 785 0
	adrp	x20, __stack_chk_guard
	.loc 1 793 0
	mov	x3, x1
	add	x0, x29, 48
	.loc 1 785 0
	ldr	x4, [x20,#:lo12:__stack_chk_guard]
	str	x4, [x29,168]
	.loc 1 793 0
	bl	memset_s
.LVL0:
	.loc 1 795 0
	adrp	x0, .LC0
	mov	w1, 5
	add	x0, x0, :lo12:.LC0
	add	x2, x29, 32
	bl	kern_path
.LVL1:
	.loc 1 796 0
	cbz	w0, .L7
.L2:
	.loc 1 812 0
	ldr	x2, [x29,168]
	ldr	x1, [x20,#:lo12:__stack_chk_guard]
	cmp	x2, x1
	bne	.L8
	ldp	x19, x20, [sp,16]
	.cfi_remember_state
	.cfi_restore 20
	.cfi_restore 19
	ldp	x29, x30, [sp], 176
	.cfi_restore 30
	.cfi_restore 29
	.cfi_def_cfa 31, 0
	ret
.L7:
	.cfi_restore_state
	.loc 1 797 0
	add	x1, x29, 48
	add	x0, x29, 32
	bl	vfs_statfs
.LVL2:
	mov	w19, w0
	.loc 1 798 0
	add	x0, x29, 32
	bl	path_put
.LVL3:
	mov	w0, w19
	.loc 1 801 0
	cbnz	w19, .L2
	.loc 1 804 0
	ldr	x1, [x29,80]
	.loc 1 805 0
	adrp	x2, .LANCHOR0
	.loc 1 804 0
	ldr	x3, [x29,64]
	lsl	x0, x1, 4
	add	x0, x0, x1, lsl 2
	.loc 1 805 0
	ldr	x2, [x2,#:lo12:.LANCHOR0]
	.loc 1 804 0
	add	x0, x0, x0, lsl 2
	.loc 1 805 0
	ldr	w2, [x2,296]
	.loc 1 804 0
	udiv	x0, x0, x3
	.loc 1 805 0
	cmp	w2, w0
	cset	w2, cs
	.loc 1 805 0 is_stmt 0 discriminator 1
	cmp	x1, 262144
	cset	w0, ls
	.loc 1 811 0 is_stmt 1
	and	w0, w2, w0
	b	.L2
.L8:
	.loc 1 812 0
	bl	__stack_chk_fail
.LVL4:
	.cfi_endproc
.LFE2918:
	.size	pch_user_statfs, .-pch_user_statfs
	.align	2
	.type	pch_timeout_work, %function
pch_timeout_work:
.LFB2919:
	.loc 1 815 0
	.cfi_startproc
.LVL5:
	stp	x29, x30, [sp, -80]!
	.cfi_def_cfa_offset 80
	.cfi_offset 29, -80
	.cfi_offset 30, -72
	add	x29, sp, 0
	.cfi_def_cfa_register 29
	stp	x19, x20, [sp,16]
	.cfi_offset 19, -64
	.cfi_offset 20, -56
	.loc 1 824 0
	adrp	x19, .LANCHOR0
	.loc 1 815 0
	adrp	x20, __stack_chk_guard
	str	x21, [sp,32]
	.cfi_offset 21, -48
	.loc 1 824 0
	ldr	x0, [x19,#:lo12:.LANCHOR0]
.LVL6:
	.loc 1 815 0
	ldr	x1, [x20,#:lo12:__stack_chk_guard]
	.loc 1 824 0
	add	x0, x0, 216
	.loc 1 815 0
	str	x1, [x29,72]
	.loc 1 824 0
	bl	down
.LVL7:
	.loc 1 825 0
	ldr	x1, [x19,#:lo12:.LANCHOR0]
	mov	w0, 1
	add	x1, x1, 264
	bl	set_bit
.LVL8:
.LBB475:
.LBB476:
	.loc 1 127 0
	ldr	x1, [x19,#:lo12:.LANCHOR0]
	ldr	w0, [x1,300]
.LBE476:
.LBE475:
	.loc 1 827 0
	tbz	x0, 0, .L24
	.loc 1 833 0
	ldr	x0, [x1,128]
	.loc 1 834 0
	ldr	x0, [x0,16]
	ldr	x21, [x0,248]
.LVL9:
	.loc 1 837 0
	bl	pch_user_statfs
.LVL10:
	.loc 1 838 0
	cmp	w0, 1
	.loc 1 837 0
	mov	w2, w0
.LVL11:
	.loc 1 838 0
	beq	.L25
.LVL12:
	.loc 1 842 0
	cbnz	w0, .L14
	.loc 1 843 0
	ldr	x0, [x19,#:lo12:.LANCHOR0]
	mov	w2, 16
.LVL13:
	.loc 1 844 0
	ldr	w1, [x0,276]
	.loc 1 843 0
	str	w2, [x0,288]
	.loc 1 844 0
	cbz	w1, .L26
	.loc 1 847 0
	cmp	w1, 1
	beq	.L27
.LVL14:
.L13:
	.loc 1 855 0
	add	x0, x29, 56
	add	x1, x29, 64
	bl	global_dirty_limits
.LVL15:
.LBB477:
.LBB478:
.LBB479:
.LBB480:
.LBB481:
.LBB482:
.LBB483:
	.file 2 "/mnt/disk/jenkins/ci/workspace/chipset_patch_970_docker/opensource/component_code/vendor/huawei/extra/build/build_script/kirin_kernel_release/kernel/include/linux/compiler.h"
	.loc 2 247 0 discriminator 5
	adrp	x0, vm_zone_stat
	add	x0, x0, :lo12:vm_zone_stat
	ldr	x1, [x0,112]
.LBE483:
.LBE482:
.LBE481:
.LBE480:
.LBE479:
.LBE478:
.LBE477:
.LBB484:
.LBB485:
.LBB486:
.LBB487:
.LBB488:
.LBB489:
.LBB490:
	ldr	x2, [x0,168]
.LBE490:
.LBE489:
.LBE488:
.LBE487:
.LBE486:
.LBE485:
.LBE484:
.LBB491:
.LBB492:
.LBB493:
.LBB494:
.LBB495:
.LBB496:
.LBB497:
	ldr	x0, [x0,120]
	cmp	x2, xzr
	csel	x2, x2, xzr, ge
	cmp	x1, xzr
	csel	x1, x1, xzr, ge
	cmp	x0, xzr
	csel	x0, x0, xzr, ge
.LBE497:
.LBE496:
.LBE495:
.LBE494:
.LBE493:
.LBE492:
.LBE491:
	.loc 1 857 0
	add	x1, x2, x1
	add	x0, x1, x0
.LVL16:
	.loc 1 860 0
	ldr	x1, [x29,64]
	cmp	x0, x1
	bcc	.L18
	.loc 1 866 0
	adds	x0, x21, 80
.LVL17:
	beq	.L18
.LBB498:
.LBB499:
.LBB500:
.LBB501:
	.file 3 "/mnt/disk/jenkins/ci/workspace/chipset_patch_970_docker/opensource/component_code/vendor/huawei/extra/build/build_script/kirin_kernel_release/kernel/include/asm-generic/bitops/non-atomic.h"
	.loc 3 105 0
	ldr	x1, [x21,88]
.LBE501:
.LBE500:
.LBE499:
.LBE498:
	.loc 1 872 0
	tbz	x1, 1, .L28
.LVL18:
.L18:
	.loc 1 875 0
	ldr	x1, [x19,#:lo12:.LANCHOR0]
.L24:
	add	x1, x1, 264
	mov	w0, 1
.LVL19:
	bl	clear_bit
.LVL20:
	.loc 1 876 0
	ldr	x0, [x19,#:lo12:.LANCHOR0]
	add	x0, x0, 216
	bl	up
.LVL21:
	.loc 1 877 0
	ldr	x1, [x29,72]
	ldr	x0, [x20,#:lo12:__stack_chk_guard]
	cmp	x1, x0
	bne	.L29
	ldp	x19, x20, [sp,16]
	.cfi_remember_state
	.cfi_restore 20
	.cfi_restore 19
	ldr	x21, [sp,32]
	.cfi_restore 21
.LVL22:
	ldp	x29, x30, [sp], 80
	.cfi_restore 30
	.cfi_restore 29
	.cfi_def_cfa 31, 0
	ret
.LVL23:
.L26:
	.cfi_restore_state
	.loc 1 845 0
	mov	w1, 8
	str	w1, [x0,284]
	.loc 1 846 0
	str	w1, [x0,280]
	b	.L13
.LVL24:
.L25:
	.loc 1 839 0
	ldr	x0, [x19,#:lo12:.LANCHOR0]
	mov	w1, 4
	str	w1, [x0,280]
	.loc 1 840 0
	str	w1, [x0,284]
	.loc 1 841 0
	mov	w1, 16
	str	w1, [x0,288]
	b	.L13
.LVL25:
.L27:
	.loc 1 848 0
	str	w2, [x0,284]
	.loc 1 849 0
	str	w2, [x0,280]
	b	.L13
.LVL26:
.L28:
	.loc 1 873 0
	bl	wb_start_background_writeback
.LVL27:
	.loc 1 875 0
	ldr	x1, [x19,#:lo12:.LANCHOR0]
	b	.L24
.L29:
	.loc 1 877 0
	bl	__stack_chk_fail
.LVL28:
.L14:
	.loc 1 852 0 discriminator 1
	adrp	x0, .LC1
.LVL29:
	adrp	x1, .LANCHOR1
	add	x1, x1, :lo12:.LANCHOR1
	add	x0, x0, :lo12:.LC1
	bl	printk
.LVL30:
	b	.L13
	.cfi_endproc
.LFE2919:
	.size	pch_timeout_work, .-pch_timeout_work
	.align	2
	.type	pch_timeout_timer, %function
pch_timeout_timer:
.LFB2920:
	.loc 1 880 0
	.cfi_startproc
.LVL31:
.LBB502:
.LBB503:
	.loc 1 771 0
	adrp	x0, .LANCHOR0
.LVL32:
.LBE503:
.LBE502:
	.loc 1 880 0
	stp	x29, x30, [sp, -16]!
	.cfi_def_cfa_offset 16
	.cfi_offset 29, -16
	.cfi_offset 30, -8
	add	x29, sp, 0
	.cfi_def_cfa_register 29
.LBB507:
.LBB506:
	.loc 1 771 0
	ldr	x2, [x0,#:lo12:.LANCHOR0]
.LBB504:
.LBB505:
	.loc 3 105 0
	ldr	x0, [x2,264]
.LBE505:
.LBE504:
.LBE506:
.LBE507:
	.loc 1 881 0
	tbnz	x0, 1, .L30
.LBB508:
.LBB509:
.LBB510:
.LBB511:
	.file 4 "/mnt/disk/jenkins/ci/workspace/chipset_patch_970_docker/opensource/component_code/vendor/huawei/extra/build/build_script/kirin_kernel_release/kernel/include/linux/workqueue.h"
	.loc 4 477 0
	adrp	x1, system_wq
	mov	w0, 8
	add	x2, x2, 184
	ldr	x1, [x1,#:lo12:system_wq]
	bl	queue_work_on
.LVL33:
.L30:
.LBE511:
.LBE510:
.LBE509:
.LBE508:
	.loc 1 883 0
	ldp	x29, x30, [sp], 16
	.cfi_restore 30
	.cfi_restore 29
	.cfi_def_cfa 31, 0
	ret
	.cfi_endproc
.LFE2920:
	.size	pch_timeout_timer, .-pch_timeout_timer
	.align	2
	.type	pch_emui_bootstat_proc_open, %function
pch_emui_bootstat_proc_open:
.LFB2926:
	.loc 1 1068 0
	.cfi_startproc
.LVL34:
	stp	x29, x30, [sp, -16]!
	.cfi_def_cfa_offset 16
	.cfi_offset 29, -16
	.cfi_offset 30, -8
	.loc 1 1069 0
	mov	x0, x1
.LVL35:
	adrp	x1, pch_emui_bootstat_proc_show
.LVL36:
	.loc 1 1068 0
	add	x29, sp, 0
	.cfi_def_cfa_register 29
	.loc 1 1069 0
	mov	x2, 0
	add	x1, x1, :lo12:pch_emui_bootstat_proc_show
	.loc 1 1068 0
	.loc 1 1069 0
	bl	single_open
.LVL37:
	.loc 1 1070 0
	ldp	x29, x30, [sp], 16
	.cfi_restore 30
	.cfi_restore 29
	.cfi_def_cfa 31, 0
	ret
	.cfi_endproc
.LFE2926:
	.size	pch_emui_bootstat_proc_open, .-pch_emui_bootstat_proc_open
	.align	2
	.type	pch_emui_bootstat_proc_show, %function
pch_emui_bootstat_proc_show:
.LFB2925:
	.loc 1 1062 0
	.cfi_startproc
.LVL38:
	.loc 1 1063 0
	adrp	x2, .LANCHOR0
	adrp	x1, .LC2
.LVL39:
	.loc 1 1062 0
	stp	x29, x30, [sp, -16]!
	.cfi_def_cfa_offset 16
	.cfi_offset 29, -16
	.cfi_offset 30, -8
	.loc 1 1063 0
	add	x1, x1, :lo12:.LC2
	.loc 1 1062 0
	add	x29, sp, 0
	.cfi_def_cfa_register 29
	.loc 1 1063 0
	ldr	x2, [x2,#:lo12:.LANCHOR0]
	ldr	w2, [x2,272]
	bl	seq_printf
.LVL40:
	.loc 1 1065 0
	mov	w0, 0
	ldp	x29, x30, [sp], 16
	.cfi_restore 30
	.cfi_restore 29
	.cfi_def_cfa 31, 0
	ret
	.cfi_endproc
.LFE2925:
	.size	pch_emui_bootstat_proc_show, .-pch_emui_bootstat_proc_show
	.align	2
	.type	pch_emui_bootstat_proc_write, %function
pch_emui_bootstat_proc_write:
.LFB2927:
	.loc 1 1074 0
	.cfi_startproc
.LVL41:
	stp	x29, x30, [sp, -64]!
	.cfi_def_cfa_offset 64
	.cfi_offset 29, -64
	.cfi_offset 30, -56
	.loc 1 1084 0
	cmp	x1, xzr
	.loc 1 1074 0
	add	x29, sp, 0
	.cfi_def_cfa_register 29
	stp	x21, x22, [sp,32]
	.cfi_offset 21, -32
	.cfi_offset 22, -24
	.loc 1 1078 0
	adrp	x21, .LANCHOR0
	.loc 1 1084 0
	cset	w4, eq
	.loc 1 1074 0
	stp	x19, x20, [sp,16]
	.cfi_offset 19, -48
	.cfi_offset 20, -40
	.loc 1 1074 0
	adrp	x20, __stack_chk_guard
	mov	x19, x2
	.loc 1 1078 0
	ldr	x0, [x21,#:lo12:.LANCHOR0]
.LVL42:
	.loc 1 1074 0
	ldr	x2, [x20,#:lo12:__stack_chk_guard]
.LVL43:
	.loc 1 1078 0
	ldr	w0, [x0,272]
	.loc 1 1074 0
	str	x2, [x29,56]
	.loc 1 1078 0
	cmp	w0, 1
	cset	w0, eq
	.loc 1 1084 0
	orr	w0, w4, w0
	cbnz	w0, .L41
	cbz	x19, .L41
.LBB512:
.LBB513:
.LBB514:
.LBB515:
.LBB516:
.LBB517:
	.file 5 "/mnt/disk/jenkins/ci/workspace/chipset_patch_970_docker/opensource/component_code/vendor/huawei/extra/build/build_script/kirin_kernel_release/kernel/arch/arm64/include/asm/current.h"
	.loc 5 20 0
#APP
// 20 "/mnt/disk/jenkins/ci/workspace/chipset_patch_970_docker/opensource/component_code/vendor/huawei/extra/build/build_script/kirin_kernel_release/kernel/arch/arm64/include/asm/current.h" 1
	mrs x0, sp_el0
// 0 "" 2
.LVL44:
#NO_APP
.LBE517:
.LBE516:
	.file 6 "/mnt/disk/jenkins/ci/workspace/chipset_patch_970_docker/opensource/component_code/vendor/huawei/extra/build/build_script/kirin_kernel_release/kernel/arch/arm64/include/asm/uaccess.h"
	.loc 6 115 0
	mov	x2, x1
.LVL45:
	.loc 6 112 0
	ldr	x4, [x0,8]
.LVL46:
	.loc 6 115 0
#APP
// 115 "/mnt/disk/jenkins/ci/workspace/chipset_patch_970_docker/opensource/component_code/vendor/huawei/extra/build/build_script/kirin_kernel_release/kernel/arch/arm64/include/asm/uaccess.h" 1
		adds	x2, x2, 1
	csel	x4, xzr, x4, hi
	csinv	x2, x2, xzr, cc
	sbcs	xzr, x2, x4
	cset	x2, ls

// 0 "" 2
#NO_APP
.LBE515:
.LBE514:
	.loc 6 445 0
	cbnz	x2, .L47
	add	x0, x29, 55
.LVL47:
	.loc 6 442 0
	mov	x2, 1
.LVL48:
.L36:
	.loc 6 450 0
	mov	w1, 0
.LVL49:
	bl	memset
.LVL50:
.LBE513:
.LBE512:
	.loc 1 1088 0
	mov	x0, -1
.LVL51:
.L35:
	.loc 1 1101 0
	ldr	x2, [x29,56]
	ldr	x1, [x20,#:lo12:__stack_chk_guard]
.LVL52:
	cmp	x2, x1
	bne	.L48
	ldp	x19, x20, [sp,16]
	.cfi_remember_state
	.cfi_restore 20
	.cfi_restore 19
.LVL53:
	ldp	x21, x22, [sp,32]
	.cfi_restore 22
	.cfi_restore 21
	ldp	x29, x30, [sp], 64
	.cfi_restore 30
	.cfi_restore 29
	.cfi_def_cfa 31, 0
	ret
.LVL54:
.L47:
	.cfi_restore_state
.LBB519:
.LBB518:
	.loc 6 447 0
	add	x22, x29, 55
	mov	x2, 1
.LVL55:
	mov	x0, x22
.LVL56:
	bl	__arch_copy_from_user
.LVL57:
	mov	x2, x0
.LVL58:
	.loc 6 449 0
	cbnz	x0, .L49
.LVL59:
.LBE518:
.LBE519:
	.loc 1 1092 0
	ldrb	w0, [x29,55]
.LVL60:
	cmp	w0, 49
	bne	.L50
	.loc 1 1097 0
	ldr	x2, [x21,#:lo12:.LANCHOR0]
.LVL61:
	mov	w1, 1
	.loc 1 1100 0
	mov	x0, x19
.LVL62:
	.loc 1 1097 0
	str	w1, [x2,272]
	.loc 1 1098 0
	adrp	x2, .LANCHOR2
	str	w1, [x2,#:lo12:.LANCHOR2]
	.loc 1 1100 0
	b	.L35
.LVL63:
.L41:
	.loc 1 1085 0
	mov	x0, -1
	b	.L35
.LVL64:
.L48:
	.loc 1 1101 0
	bl	__stack_chk_fail
.LVL65:
.L50:
	.loc 1 1093 0 discriminator 1
	adrp	x1, .LANCHOR1
	adrp	x0, .LC3
.LVL66:
	add	x1, x1, :lo12:.LANCHOR1
	add	x0, x0, :lo12:.LC3
	add	x1, x1, 24
	bl	printk
.LVL67:
	.loc 1 1094 0
	mov	x0, -1
	b	.L35
.LVL68:
.L49:
	sub	x0, x22, x0
.LVL69:
	add	x0, x0, 1
	b	.L36
	.cfi_endproc
.LFE2927:
	.size	pch_emui_bootstat_proc_write, .-pch_emui_bootstat_proc_write
	.section	.init.text,"ax",%progbits
	.align	2
	.type	hisi_page_cache_manage_init, %function
hisi_page_cache_manage_init:
.LFB2929:
	.loc 1 1132 0
	.cfi_startproc
	stp	x29, x30, [sp, -64]!
	.cfi_def_cfa_offset 64
	.cfi_offset 29, -64
	.cfi_offset 30, -56
	add	x29, sp, 0
	.cfi_def_cfa_register 29
	stp	x19, x20, [sp,16]
	.cfi_offset 19, -48
	.cfi_offset 20, -40
	.loc 1 1141 0
	adrp	x20, .LANCHOR0
	.loc 1 1132 0
	str	x23, [sp,48]
	.loc 1 1141 0
	add	x0, x20, :lo12:.LANCHOR0
	.loc 1 1132 0
	stp	x21, x22, [sp,32]
	.cfi_offset 23, -16
	.cfi_offset 21, -32
	.cfi_offset 22, -24
	.loc 1 1141 0
	ldr	w0, [x0,8]
	cmp	w0, 1
	bls	.L52
	.loc 1 1141 0 is_stmt 0 discriminator 1
	adrp	x1, .LANCHOR1
	adrp	x0, .LC4
	add	x1, x1, :lo12:.LANCHOR1
	add	x0, x0, :lo12:.LC4
	add	x1, x1, 56
	bl	printk
.LVL70:
.L52:
.LBB536:
.LBB537:
.LBB538:
	.file 7 "/mnt/disk/jenkins/ci/workspace/chipset_patch_970_docker/opensource/component_code/vendor/huawei/extra/build/build_script/kirin_kernel_release/kernel/include/linux/slab.h"
	.loc 7 495 0 is_stmt 1
	adrp	x0, kmalloc_caches+72
	mov	w1, 32960
	movk	w1, 0x240, lsl 16
	mov	x2, 304
.LBE538:
.LBE537:
.LBE536:
	.loc 1 1143 0
	adrp	x21, .LANCHOR0
	.loc 1 1145 0
	mov	w22, -12
.LBB541:
.LBB540:
.LBB539:
	.loc 7 495 0
	ldr	x0, [x0,#:lo12:kmalloc_caches+72]
	bl	kmem_cache_alloc_trace
.LVL71:
.LBE539:
.LBE540:
.LBE541:
	.loc 1 1143 0
	str	x0, [x20,#:lo12:.LANCHOR0]
	.loc 1 1144 0
	cbz	x0, .L53
	.loc 1 1147 0
	adrp	x1, .LANCHOR2
	.loc 1 1148 0
	mov	w23, 8
	.loc 1 1149 0
	mov	w22, 16
	.loc 1 1148 0
	str	w23, [x0,292]
	.loc 1 1149 0
	str	w22, [x0,288]
	adrp	x19, .LANCHOR1
	.loc 1 1147 0
	ldr	w1, [x1,#:lo12:.LANCHOR2]
	str	w1, [x0,272]
	.loc 1 1150 0
	mov	w1, 1
	.loc 1 1151 0
	str	wzr, [x0,300]
	.loc 1 1150 0
	str	w1, [x0,296]
	.loc 1 1152 0
	bl	get_bootdevice_type
.LVL72:
	.loc 1 1153 0
	cbnz	w0, .L54
	.loc 1 1154 0
	ldr	x0, [x21,#:lo12:.LANCHOR0]
.LVL73:
	str	wzr, [x0,276]
	.loc 1 1155 0
	str	w23, [x0,284]
	.loc 1 1156 0
	str	w23, [x0,280]
	b	.L55
.LVL74:
.L54:
	.loc 1 1157 0
	cmp	w0, 1
	bne	.L56
	.loc 1 1158 0
	ldr	x1, [x21,#:lo12:.LANCHOR0]
	str	w0, [x1,276]
	.loc 1 1159 0
	str	w22, [x1,284]
	.loc 1 1160 0
	str	w22, [x1,280]
	b	.L55
.L56:
	.loc 1 1162 0 discriminator 1
	add	x1, x19, :lo12:.LANCHOR1
	adrp	x0, .LC5
.LVL75:
	add	x1, x1, 56
	add	x0, x0, :lo12:.LC5
	.loc 1 1228 0
	mov	w22, -1
	.loc 1 1162 0 discriminator 1
	bl	printk
.LVL76:
	.loc 1 1225 0
	ldr	x0, [x21,#:lo12:.LANCHOR0]
	bl	kfree
.LVL77:
	.loc 1 1226 0
	str	xzr, [x21,#:lo12:.LANCHOR0]
	.loc 1 1228 0
	b	.L53
.LVL78:
.L55:
.LBB542:
.LBB543:
	.loc 1 1113 0
	adrp	x0, .LC6
.LVL79:
	mov	x1, 0
	add	x0, x0, :lo12:.LC6
	bl	proc_mkdir
.LVL80:
	cbnz	x0, .L57
	.loc 1 1114 0 discriminator 1
	add	x1, x19, :lo12:.LANCHOR1
	adrp	x0, .LC7
	add	x1, x1, 88
	add	x0, x0, :lo12:.LC7
	bl	printk
.LVL81:
	b	.L58
.L57:
.LBB544:
.LBB545:
	.file 8 "/mnt/disk/jenkins/ci/workspace/chipset_patch_970_docker/opensource/component_code/vendor/huawei/extra/build/build_script/kirin_kernel_release/kernel/include/linux/proc_fs.h"
	.loc 8 34 0
	add	x3, x19, :lo12:.LANCHOR1
	adrp	x0, .LC8
	add	x0, x0, :lo12:.LC8
	mov	w1, 432
	mov	x2, 0
	add	x3, x3, 120
	mov	x4, 0
	bl	proc_create_data
.LVL82:
.L58:
.LBE545:
.LBE544:
.LBE543:
.LBE542:
	.loc 1 1205 0
	ldr	x0, [x20,#:lo12:.LANCHOR0]
	mov	w1, 0
	mov	x2, 0
	mov	x3, 0
	add	x0, x0, 136
	add	x21, x20, :lo12:.LANCHOR0
	.loc 1 1214 0
	mov	w22, 0
	.loc 1 1205 0
	bl	init_timer_key
.LVL83:
	ldr	x0, [x20,#:lo12:.LANCHOR0]
	adrp	x2, pch_timeout_timer
	add	x2, x2, :lo12:pch_timeout_timer
.LBB546:
.LBB547:
	.file 9 "/mnt/disk/jenkins/ci/workspace/chipset_patch_970_docker/opensource/component_code/vendor/huawei/extra/build/build_script/kirin_kernel_release/kernel/include/linux/semaphore.h"
	.loc 9 35 0
	mov	w4, 20141
.LBE547:
.LBE546:
	.loc 1 1207 0
	add	x3, x0, 192
.LBB553:
.LBB548:
	.loc 9 35 0
	movk	w4, 0xdead, lsl 16
.LBE548:
.LBE553:
	.loc 1 1205 0
	str	x2, [x0,160]
	.loc 1 1207 0
	mov	x2, 68719476704
	str	x2, [x0,184]
	adrp	x2, pch_timeout_work
	add	x2, x2, :lo12:pch_timeout_work
	str	x2, [x0,208]
.LBB554:
.LBB549:
	.loc 9 35 0
	mov	w2, -1
	str	w2, [x0,224]
	mov	x2, -1
	str	x2, [x0,232]
	mov	w2, 1
.LBE549:
.LBE554:
.LBB555:
.LBB556:
	.loc 1 162 0
	ldr	w1, [x0,300]
.LBE556:
.LBE555:
.LBB559:
.LBB550:
	.loc 9 35 0
	str	w2, [x0,240]
.LBE550:
.LBE559:
	.loc 1 1212 0
	ldr	w2, [x21,8]
.LBB560:
.LBB557:
	.loc 1 162 0
	orr	w1, w1, 4
.LBE557:
.LBE560:
.LBB561:
.LBB562:
.LBB563:
.LBB564:
.LBB565:
	.loc 2 276 0
	str	x3, [x0,192]
.LBE565:
.LBE564:
.LBE563:
	.file 10 "/mnt/disk/jenkins/ci/workspace/chipset_patch_970_docker/opensource/component_code/vendor/huawei/extra/build/build_script/kirin_kernel_release/kernel/include/linux/list.h"
	.loc 10 28 0
	str	x3, [x0,200]
.LBE562:
.LBE561:
	.loc 1 1212 0
	cmp	w2, 1
.LBB566:
.LBB551:
	.loc 9 35 0
	add	x3, x0, 248
.LBE551:
.LBE566:
	.loc 1 1205 0
	str	x0, [x0,168]
.LBB567:
.LBB552:
	.loc 9 35 0
	strh	wzr, [x0,216]
	strh	wzr, [x0,218]
	str	w4, [x0,220]
	str	x3, [x0,248]
	str	x3, [x0,256]
.LBE552:
.LBE567:
.LBB568:
.LBB558:
	.loc 1 162 0
	str	w1, [x0,300]
.LBE558:
.LBE568:
	.loc 1 1212 0
	bls	.L53
	.loc 1 1212 0 is_stmt 0 discriminator 1
	add	x1, x19, :lo12:.LANCHOR1
	adrp	x0, .LC9
	add	x0, x0, :lo12:.LC9
	add	x1, x1, 56
	bl	printk
.LVL84:
.L53:
	.loc 1 1229 0 is_stmt 1
	mov	w0, w22
	ldr	x23, [sp,48]
	.cfi_restore 23
	ldp	x19, x20, [sp,16]
	.cfi_restore 20
	.cfi_restore 19
	ldp	x21, x22, [sp,32]
	.cfi_restore 22
	.cfi_restore 21
	ldp	x29, x30, [sp], 64
	.cfi_restore 30
	.cfi_restore 29
	.cfi_def_cfa 31, 0
	ret
	.cfi_endproc
.LFE2929:
	.size	hisi_page_cache_manage_init, .-hisi_page_cache_manage_init
	.text
	.align	2
	.type	pch_io_idle_notify_handler, %function
pch_io_idle_notify_handler:
.LFB2921:
	.loc 1 897 0
	.cfi_startproc
.LVL85:
	stp	x29, x30, [sp, -16]!
	.cfi_def_cfa_offset 16
	.cfi_offset 29, -16
	.cfi_offset 30, -8
	.loc 1 898 0
	cmp	w1, 1
	.loc 1 897 0
	add	x29, sp, 0
	.cfi_def_cfa_register 29
	.loc 1 898 0
	beq	.L64
	.loc 1 900 0
	cbnz	w1, .L63
	.loc 1 901 0
	adrp	x0, .LANCHOR0
.LVL86:
	ldr	x0, [x0,#:lo12:.LANCHOR0]
	add	x0, x0, 136
	bl	del_timer
.LVL87:
.L63:
	.loc 1 905 0
	mov	w0, 0
.LVL88:
	ldp	x29, x30, [sp], 16
	.cfi_remember_state
	.cfi_restore 30
	.cfi_restore 29
	.cfi_def_cfa 31, 0
	ret
.LVL89:
.L64:
	.cfi_restore_state
.LBB575:
.LBB576:
	.loc 1 899 0
	adrp	x0, jiffies
.LVL90:
	ldr	x1, [x0,#:lo12:jiffies]
.LVL91:
	adrp	x0, .LANCHOR0
	.loc 1 899 0 is_stmt 0 discriminator 1
	add	x1, x1, 1250
	.loc 1 899 0
	ldr	x0, [x0,#:lo12:.LANCHOR0]
	.loc 1 899 0 discriminator 1
	add	x0, x0, 136
	bl	mod_timer
.LVL92:
	b	.L63
.LBE576:
.LBE575:
	.cfi_endproc
.LFE2921:
	.size	pch_io_idle_notify_handler, .-pch_io_idle_notify_handler
	.section	.exit.text,"ax",%progbits
	.align	2
	.type	hisi_page_cache_manage_exit, %function
hisi_page_cache_manage_exit:
.LFB2930:
	.loc 1 1240 0 is_stmt 1
	.cfi_startproc
	stp	x29, x30, [sp, -32]!
	.cfi_def_cfa_offset 32
	.cfi_offset 29, -32
	.cfi_offset 30, -24
	add	x29, sp, 0
	.cfi_def_cfa_register 29
	stp	x19, x20, [sp,16]
	.cfi_offset 19, -16
	.cfi_offset 20, -8
	.loc 1 1241 0
	adrp	x19, .LANCHOR0
	add	x0, x19, :lo12:.LANCHOR0
	ldr	w0, [x0,8]
	cmp	w0, 1
	bls	.L66
	.loc 1 1241 0 is_stmt 0 discriminator 1
	adrp	x1, .LANCHOR1
	adrp	x0, .LC10
	add	x1, x1, :lo12:.LANCHOR1
	add	x0, x0, :lo12:.LC10
	add	x1, x1, 360
	bl	printk
.LVL93:
.L66:
	.loc 1 1243 0 is_stmt 1
	adrp	x0, .LC8
	mov	x1, 0
	add	x0, x0, :lo12:.LC8
	.loc 1 1249 0
	add	x20, x19, :lo12:.LANCHOR0
	.loc 1 1243 0
	bl	remove_proc_entry
.LVL94:
	.loc 1 1244 0
	adrp	x0, .LC6
	mov	x1, 0
	add	x0, x0, :lo12:.LC6
	bl	remove_proc_entry
.LVL95:
	.loc 1 1249 0
	ldr	x0, [x19,#:lo12:.LANCHOR0]
	bl	kfree
.LVL96:
	.loc 1 1250 0
	str	xzr, [x19,#:lo12:.LANCHOR0]
	.loc 1 1251 0
	ldr	w0, [x20,8]
	cmp	w0, 1
	bls	.L65
.LBB579:
.LBB580:
	.loc 1 1251 0 is_stmt 0 discriminator 1
	adrp	x1, .LANCHOR1
	adrp	x0, .LC11
	add	x1, x1, :lo12:.LANCHOR1
	add	x0, x0, :lo12:.LC11
	add	x1, x1, 360
	bl	printk
.LVL97:
.L65:
.LBE580:
.LBE579:
	.loc 1 1252 0 is_stmt 1
	ldp	x19, x20, [sp,16]
	.cfi_restore 20
	.cfi_restore 19
	ldp	x29, x30, [sp], 32
	.cfi_restore 30
	.cfi_restore 29
	.cfi_def_cfa 31, 0
	ret
	.cfi_endproc
.LFE2930:
	.size	hisi_page_cache_manage_exit, .-hisi_page_cache_manage_exit
	.text
	.align	2
	.global	pch_lowmem_check
	.type	pch_lowmem_check, %function
pch_lowmem_check:
.LFB2905:
	.loc 1 269 0
	.cfi_startproc
	stp	x29, x30, [sp, -32]!
	.cfi_def_cfa_offset 32
	.cfi_offset 29, -32
	.cfi_offset 30, -24
	add	x29, sp, 0
	.cfi_def_cfa_register 29
	stp	x19, x20, [sp,16]
	.cfi_offset 19, -16
	.cfi_offset 20, -8
	.loc 1 274 0
	bl	first_online_pgdat
.LVL98:
	mov	x20, x0
	.loc 1 276 0
	cbz	x0, .L70
	.loc 1 279 0
	ldr	x2, [x0,16]
	.loc 1 280 0
	mov	w1, 0
	mov	w3, 0
	mov	w4, 0
	add	x2, x2, 2
	bl	zone_watermark_ok
.LVL99:
	uxtb	w19, w0
	.loc 1 284 0
	ldr	x2, [x20,8]
	mov	x0, x20
	mov	w1, 0
	mov	w3, 0
	mov	w4, 0
	.loc 1 272 0
	eor	w19, w19, 1
	.loc 1 284 0
	bl	zone_watermark_ok
.LVL100:
	uxtb	w0, w0
	.loc 1 272 0
	cmp	w0, wzr
	mov	w0, 2
	csel	w0, w19, w0, ne
.LVL101:
.LVL102:
	.loc 1 288 0
	ldp	x19, x20, [sp,16]
	.cfi_remember_state
	.cfi_restore 20
	.cfi_restore 19
	ldp	x29, x30, [sp], 32
	.cfi_restore 30
	.cfi_restore 29
	.cfi_def_cfa 31, 0
	ret
.L70:
	.cfi_restore_state
	.loc 1 277 0
	mov	w0, 0
.LVL103:
.LVL104:
	.loc 1 288 0
	ldp	x19, x20, [sp,16]
	.cfi_restore 19
	.cfi_restore 20
	ldp	x29, x30, [sp], 32
	.cfi_restore 29
	.cfi_restore 30
	.cfi_def_cfa 31, 0
	ret
	.cfi_endproc
.LFE2905:
	.size	pch_lowmem_check, .-pch_lowmem_check
	.align	2
	.global	pch_lowmem_check2
	.type	pch_lowmem_check2, %function
pch_lowmem_check2:
.LFB2906:
	.loc 1 301 0
	.cfi_startproc
	stp	x29, x30, [sp, -48]!
	.cfi_def_cfa_offset 48
	.cfi_offset 29, -48
	.cfi_offset 30, -40
	add	x29, sp, 0
	.cfi_def_cfa_register 29
	str	x21, [sp,32]
	.cfi_offset 21, -16
.LBB581:
.LBB582:
.LBB583:
.LBB584:
.LBB585:
.LBB586:
.LBB587:
	.loc 2 247 0 discriminator 5
	adrp	x21, vm_zone_stat
.LBE587:
.LBE586:
.LBE585:
.LBE584:
.LBE583:
.LBE582:
.LBE581:
	.loc 1 301 0
	stp	x19, x20, [sp,16]
	.cfi_offset 19, -32
	.cfi_offset 20, -24
.LBB594:
.LBB593:
.LBB592:
.LBB591:
.LBB590:
.LBB589:
.LBB588:
	.loc 2 247 0 discriminator 5
	add	x20, x21, :lo12:vm_zone_stat
	ldr	x0, [x20,104]
.LBE588:
.LBE589:
.LBE590:
.LBE591:
.LBE592:
.LBE593:
.LBE594:
.LBB595:
.LBB596:
.LBB597:
.LBB598:
.LBB599:
.LBB600:
.LBB601:
	ldr	x19, [x20,136]
	cmp	x0, xzr
	csel	x0, x0, xzr, ge
	cmp	x19, xzr
	csel	x19, x19, xzr, ge
.LBE601:
.LBE600:
.LBE599:
.LBE598:
.LBE597:
.LBE596:
.LBE595:
	.loc 1 305 0
	sub	x19, x0, x19
	.loc 1 307 0
	bl	total_swapcache_pages
.LVL105:
.LBB602:
.LBB603:
.LBB604:
.LBB605:
.LBB606:
.LBB607:
.LBB608:
	.loc 2 247 0 discriminator 5
	ldr	x1, [x21,#:lo12:vm_zone_stat]
.LBE608:
.LBE607:
.LBE606:
.LBE605:
.LBE604:
.LBE603:
.LBE602:
	.loc 1 308 0
	adrp	x3, totalreserve_pages
.LBB609:
.LBB610:
.LBB611:
.LBB612:
.LBB613:
.LBB614:
.LBB615:
	.loc 2 247 0 discriminator 5
	ldr	x2, [x20,152]
.LBE615:
.LBE614:
.LBE613:
.LBE612:
.LBE611:
.LBE610:
.LBE609:
	.loc 1 305 0
	sub	x0, x19, x0
.LVL106:
	cmp	x1, xzr
	csel	x1, x1, xzr, ge
	cmp	x2, xzr
	csel	x2, x2, xzr, ge
	.loc 1 308 0
	ldr	x3, [x3,#:lo12:totalreserve_pages]
	.loc 1 318 0
	cmp	x0, 1535
	.loc 1 308 0
	sub	x1, x1, x2
	sub	x1, x1, x3
.LVL107:
	.loc 1 318 0
	bhi	.L81
	cmp	x1, 1535
	bls	.L80
.L81:
	cmp	x0, 2047
	bhi	.L82
	cmp	x1, 2047
	bls	.L80
.L82:
	cmp	x0, 4095
	bhi	.L83
	cmp	x1, 4095
	bls	.L80
.L83:
	mov	x2, 16383
	.loc 1 323 0
	ldr	x21, [sp,32]
	.cfi_remember_state
	.cfi_restore 21
	.loc 1 318 0
	cmp	x0, x2
	cset	w3, ls
	cmp	x1, x2
	cset	w0, ls
.LVL108:
	.loc 1 319 0
	and	w0, w3, w0
	.loc 1 323 0
	ldp	x19, x20, [sp,16]
	.cfi_restore 20
	.cfi_restore 19
	ldp	x29, x30, [sp], 48
	.cfi_restore 30
	.cfi_restore 29
	.cfi_def_cfa 31, 0
	ret
.LVL109:
.L80:
	.cfi_restore_state
	.loc 1 319 0
	mov	w0, 1
.LVL110:
	.loc 1 323 0
	ldr	x21, [sp,32]
	.cfi_restore 21
	ldp	x19, x20, [sp,16]
	.cfi_restore 19
	.cfi_restore 20
	ldp	x29, x30, [sp], 48
	.cfi_restore 29
	.cfi_restore 30
	.cfi_def_cfa 31, 0
	ret
	.cfi_endproc
.LFE2906:
	.size	pch_lowmem_check2, .-pch_lowmem_check2
	.align	2
	.global	pch_get_page
	.type	pch_get_page, %function
pch_get_page:
.LFB2907:
	.loc 1 353 0
	.cfi_startproc
.LVL111:
	stp	x29, x30, [sp, -16]!
	.cfi_def_cfa_offset 16
	.cfi_offset 29, -16
	.cfi_offset 30, -8
	add	x29, sp, 0
	.cfi_def_cfa_register 29
	.loc 1 381 0
	bl	pagecache_get_page
.LVL112:
	.loc 1 382 0
	ldp	x29, x30, [sp], 16
	.cfi_restore 30
	.cfi_restore 29
	.cfi_def_cfa 31, 0
	ret
	.cfi_endproc
.LFE2907:
	.size	pch_get_page, .-pch_get_page
	.align	2
	.global	pch_shrink_read_pages
	.type	pch_shrink_read_pages, %function
pch_shrink_read_pages:
.LFB2908:
	.loc 1 394 0
	.cfi_startproc
.LVL113:
	stp	x29, x30, [sp, -32]!
	.cfi_def_cfa_offset 32
	.cfi_offset 29, -32
	.cfi_offset 30, -24
	add	x29, sp, 0
	.cfi_def_cfa_register 29
	stp	x19, x20, [sp,16]
	.cfi_offset 19, -16
	.cfi_offset 20, -8
	.loc 1 397 0
	adrp	x20, .LANCHOR0
	.loc 1 394 0
	mov	x19, x0
	.loc 1 397 0
	ldr	x0, [x20,#:lo12:.LANCHOR0]
.LVL114:
	ldr	w1, [x0,272]
	cbz	w1, .L98
	.loc 1 400 0
	ldr	w1, [x0,284]
	cmp	x19, x1
	bls	.L97
	.loc 1 401 0
	ldr	w19, [x0,280]
.L97:
	.loc 1 405 0
	bl	pch_lowmem_check
.LVL115:
	cmp	w0, wzr
	ble	.L98
	.loc 1 406 0
	ldr	x0, [x20,#:lo12:.LANCHOR0]
	ldr	w0, [x0,292]
.LVL116:
	cmp	x19, x0
	csel	x19, x19, x0, ls
.LVL117:
.L98:
.LBB616:
	.loc 1 409 0
	cmp	x19, 512
	mov	x0, 512
	csel	x0, x19, x0, ls
.LBE616:
	.loc 1 410 0
	ldp	x19, x20, [sp,16]
	.cfi_restore 20
	.cfi_restore 19
.LVL118:
	ldp	x29, x30, [sp], 32
	.cfi_restore 30
	.cfi_restore 29
	.cfi_def_cfa 31, 0
	ret
	.cfi_endproc
.LFE2908:
	.size	pch_shrink_read_pages, .-pch_shrink_read_pages
	.align	2
	.global	pch_shrink_mmap_pages
	.type	pch_shrink_mmap_pages, %function
pch_shrink_mmap_pages:
.LFB2909:
	.loc 1 421 0
	.cfi_startproc
.LVL119:
	stp	x29, x30, [sp, -32]!
	.cfi_def_cfa_offset 32
	.cfi_offset 29, -32
	.cfi_offset 30, -24
	add	x29, sp, 0
	.cfi_def_cfa_register 29
	stp	x19, x20, [sp,16]
	.cfi_offset 19, -16
	.cfi_offset 20, -8
	.loc 1 424 0
	adrp	x20, .LANCHOR0
	ldr	x1, [x20,#:lo12:.LANCHOR0]
	ldr	w2, [x1,272]
	cbz	w2, .L103
	.loc 1 427 0
	ldr	w19, [x1,280]
.LVL120:
	cmp	x0, x19
	csel	x19, x0, x19, ls
	.loc 1 432 0
	bl	pch_lowmem_check
.LVL121:
	cmp	w0, wzr
	ble	.L102
	.loc 1 433 0
	ldr	x0, [x20,#:lo12:.LANCHOR0]
	ldr	w0, [x0,292]
.LVL122:
	cmp	x19, x0
	csel	x19, x19, x0, ls
.LVL123:
.L102:
.LBB619:
	.loc 1 436 0
	cmp	x19, 512
	mov	x0, 512
	csel	x0, x19, x0, ls
.LBE619:
	.loc 1 437 0
	ldp	x19, x20, [sp,16]
	.cfi_remember_state
	.cfi_restore 20
	.cfi_restore 19
.LVL124:
	ldp	x29, x30, [sp], 32
	.cfi_restore 30
	.cfi_restore 29
	.cfi_def_cfa 31, 0
	ret
.LVL125:
.L103:
	.cfi_restore_state
.LBB620:
	.loc 1 425 0
	cmp	x0, 512
	mov	x1, 512
	csel	x0, x0, x1, ls
.LVL126:
.LBE620:
	.loc 1 437 0
	ldp	x19, x20, [sp,16]
	.cfi_restore 19
	.cfi_restore 20
	ldp	x29, x30, [sp], 32
	.cfi_restore 29
	.cfi_restore 30
	.cfi_def_cfa 31, 0
	ret
	.cfi_endproc
.LFE2909:
	.size	pch_shrink_mmap_pages, .-pch_shrink_mmap_pages
	.align	2
	.global	pch_shrink_mmap_async_pages
	.type	pch_shrink_mmap_async_pages, %function
pch_shrink_mmap_async_pages:
.LFB2910:
	.loc 1 448 0
	.cfi_startproc
.LVL127:
	.loc 1 451 0
	adrp	x1, .LANCHOR0
	.loc 1 448 0
	stp	x29, x30, [sp, -32]!
	.cfi_def_cfa_offset 32
	.cfi_offset 29, -32
	.cfi_offset 30, -24
	add	x29, sp, 0
	.cfi_def_cfa_register 29
	.loc 1 451 0
	ldr	x1, [x1,#:lo12:.LANCHOR0]
	.loc 1 448 0
	str	x19, [sp,16]
	.cfi_offset 19, -16
	.loc 1 451 0
	ldr	w1, [x1,272]
	cbnz	w1, .L105
.LBB621:
	.loc 1 452 0
	cmp	x0, 512
	mov	x1, 512
	csel	x0, x0, x1, ls
.LVL128:
.LBE621:
	.loc 1 460 0
	ldr	x19, [sp,16]
	.cfi_remember_state
	.cfi_restore 19
	ldp	x29, x30, [sp], 32
	.cfi_restore 30
	.cfi_restore 29
	.cfi_def_cfa 31, 0
	ret
.LVL129:
.L105:
	.cfi_restore_state
	mov	x19, x0
	.loc 1 454 0
	bl	pch_lowmem_check
.LVL130:
	.loc 1 457 0
	cmp	w0, wzr
	csel	x0, x19, xzr, eq
	.loc 1 460 0
	ldr	x19, [sp,16]
	.cfi_restore 19
.LVL131:
	ldp	x29, x30, [sp], 32
	.cfi_restore 29
	.cfi_restore 30
	.cfi_def_cfa 31, 0
	ret
	.cfi_endproc
.LFE2910:
	.size	pch_shrink_mmap_async_pages, .-pch_shrink_mmap_async_pages
	.align	2
	.global	pch_read_around
	.type	pch_read_around, %function
pch_read_around:
.LFB2914:
	.loc 1 612 0
	.cfi_startproc
.LVL132:
	stp	x29, x30, [sp, -240]!
	.cfi_def_cfa_offset 240
	.cfi_offset 29, -240
	.cfi_offset 30, -232
	mov	x4, x0
	add	x29, sp, 0
	.cfi_def_cfa_register 29
	stp	x19, x20, [sp,16]
	.cfi_offset 19, -224
	.cfi_offset 20, -216
.LBB687:
.LBB688:
	.loc 1 424 0
	adrp	x19, .LANCHOR0
.LBE688:
.LBE687:
	.loc 1 612 0
	str	x1, [x29,128]
	adrp	x1, __stack_chk_guard
.LVL133:
	str	x0, [x29,112]
.LBB697:
.LBB692:
	.loc 1 424 0
	ldr	x0, [x19,#:lo12:.LANCHOR0]
.LVL134:
.LBE692:
.LBE697:
	.loc 1 612 0
	stp	x21, x22, [sp,32]
	stp	x23, x24, [sp,48]
	stp	x25, x26, [sp,64]
	stp	x27, x28, [sp,80]
	.cfi_offset 21, -208
	.cfi_offset 22, -200
	.cfi_offset 23, -192
	.cfi_offset 24, -184
	.cfi_offset 25, -176
	.cfi_offset 26, -168
	.cfi_offset 27, -160
	.cfi_offset 28, -152
	.loc 1 612 0
	ldr	x1, [x1,#:lo12:__stack_chk_guard]
	str	x1, [x29,232]
.LBB698:
.LBB693:
	.loc 1 424 0
	ldr	w1, [x0,272]
.LBE693:
.LBE698:
	.loc 1 612 0
	str	x2, [x29,96]
	.loc 1 618 0
	ldr	w20, [x4,16]
.LBB699:
.LBB694:
	.loc 1 424 0
	cbz	w1, .L111
	.loc 1 427 0
	ldr	w21, [x0,280]
	str	x3, [x29,168]
	cmp	x21, x20
	csel	x20, x21, x20, ls
	.loc 1 432 0
	bl	pch_lowmem_check
.LVL135:
	cmp	w0, wzr
	ldr	x3, [x29,168]
.LVL136:
	ble	.L111
	.loc 1 433 0
	ldr	x0, [x19,#:lo12:.LANCHOR0]
	ldr	w0, [x0,292]
	cmp	x20, x0
	csel	x20, x20, x0, ls
.LVL137:
.L111:
.LBB689:
	.loc 1 436 0
	cmp	x20, 512
.LBE689:
.LBE694:
.LBE699:
.LBB700:
.LBB701:
	.loc 1 522 0
	ldr	x1, [x29,128]
.LVL138:
.LBE701:
.LBE700:
.LBB788:
.LBB695:
.LBB690:
	.loc 1 436 0
	mov	x0, 512
.LBE690:
.LBE695:
.LBE788:
.LBB789:
.LBB779:
	.loc 1 525 0
	add	x24, x29, 184
.LBE779:
.LBE789:
.LBB790:
.LBB696:
.LBB691:
	.loc 1 436 0
	csel	x0, x20, x0, ls
	str	x0, [x29,136]
.LBE691:
.LBE696:
.LBE790:
.LBB791:
.LBB780:
	.loc 1 522 0
	ldr	x0, [x1]
.LVL139:
	.loc 1 526 0
	add	x27, x29, 200
.LBE780:
.LBE791:
.LBB792:
	.loc 1 621 0
	ldr	x2, [x29,136]
.LVL140:
.LBE792:
.LBB793:
.LBB781:
.LBB702:
.LBB703:
	.file 11 "/mnt/disk/jenkins/ci/workspace/chipset_patch_970_docker/opensource/component_code/vendor/huawei/extra/build/build_script/kirin_kernel_release/kernel/include/linux/pagemap.h"
	.loc 11 224 0
	ldr	w1, [x1,200]
.LVL141:
	ldr	x19, [x0,80]
.LBE703:
.LBE702:
	.loc 1 533 0
	add	x0, x29, 216
.LVL142:
.LBE781:
.LBE793:
.LBB794:
	.loc 1 621 0
	sub	x28, x3, x2, lsr 1
.LBE794:
.LBB795:
.LBB782:
	.loc 1 525 0
	str	x24, [x29,184]
.LBE782:
.LBE795:
.LBB796:
	.loc 1 621 0
	cmp	x28, xzr
.LBE796:
.LBB797:
.LBB783:
	.loc 1 525 0
	str	x24, [x29,192]
.LBE783:
.LBE797:
.LBB798:
	.loc 1 621 0
	csel	x28, x28, xzr, ge
.LBE798:
.LBB799:
.LBB784:
	.loc 1 540 0
	cmp	x2, 128
	.loc 1 533 0
	stp	xzr, xzr, [x0]
.LBE784:
.LBE799:
	.loc 1 624 0
	sub	x0, x3, x28
.LVL143:
.LBB800:
.LBB785:
	.loc 1 526 0
	str	x27, [x29,200]
.LBE785:
.LBE800:
	.loc 1 624 0
	mov	x3, x0
.LVL144:
.LBB801:
.LBB786:
.LBB706:
.LBB704:
	.loc 11 224 0
	mov	w0, 4864
.LVL145:
	orr	w0, w1, w0
.LBE704:
.LBE706:
	.loc 1 526 0
	str	x27, [x29,208]
.LBB707:
.LBB705:
	.loc 11 224 0
	str	w0, [x29,160]
.LBE705:
.LBE707:
	.loc 1 540 0
	csel	x0, x3, xzr, cc
.LVL146:
	str	x0, [x29,144]
	.loc 1 542 0
	cbz	x19, .L146
	.loc 1 556 0 discriminator 1
	ldr	x0, [x29,136]
.LVL147:
	.loc 1 549 0
	sub	x19, x19, #1
	asr	x19, x19, 12
	.loc 1 556 0 discriminator 1
	lsl	x21, x0, 1
	cbz	x21, .L146
	ldr	x0, [x29,136]
	sub	w19, w19, w28
	str	w0, [x29,108]
	mov	x25, 0
.LVL148:
	sub	w20, w0, #1
	.loc 1 565 0
	ldr	x0, [x29,128]
.LVL149:
	cmp	w19, w20
	.loc 1 556 0 discriminator 1
	str	wzr, [x29,164]
	.loc 1 565 0
	add	x0, x0, 8
.LVL150:
	csel	w20, w19, w20, le
	str	x0, [x29,152]
.LBB708:
.LBB709:
.LBB710:
.LBB711:
.LBB712:
	.file 12 "/mnt/disk/jenkins/ci/workspace/chipset_patch_970_docker/opensource/component_code/vendor/huawei/extra/build/build_script/kirin_kernel_release/kernel/include/linux/gfp.h"
	.loc 12 437 0
	adrp	x0, contig_page_data+6144
	ldr	w19, [x29,144]
	add	x0, x0, :lo12:contig_page_data+6144
	str	x0, [x29,120]
.LVL151:
.L123:
.LBE712:
.LBE711:
.LBE710:
.LBE709:
.LBE708:
.LBB717:
.LBB718:
	.loc 1 477 0
	tbz	x25, 0, .L116
.LVL152:
	mvn	w0, w25
	.loc 1 477 0 is_stmt 0 discriminator 1
	add	w0, w0, w0, lsr 31
	asr	w0, w0, 1
.L117:
	.loc 1 482 0 is_stmt 1
	adds	w26, w0, w19
	bmi	.L118
	cmp	w26, w20
	bgt	.L118
.LBE718:
.LBE717:
.LBB720:
.LBB721:
	.file 13 "/mnt/disk/jenkins/ci/workspace/chipset_patch_970_docker/opensource/component_code/vendor/huawei/extra/build/build_script/kirin_kernel_release/kernel/include/linux/rcupdate.h"
	.loc 13 873 0
	bl	__rcu_read_lock
.LVL153:
.LBE721:
.LBE720:
	.loc 1 562 0
	sxtw	x23, w26
	add	x22, x23, x28
	.loc 1 565 0
	ldr	x0, [x29,152]
	mov	x1, x22
	bl	radix_tree_lookup
.LVL154:
	str	x0, [x29,168]
.LBB722:
.LBB723:
	.loc 13 930 0
	bl	__rcu_read_unlock
.LVL155:
.LBE723:
.LBE722:
	.loc 1 567 0
	ldr	x0, [x29,168]
.LVL156:
	cbz	x0, .L130
	.loc 1 567 0 is_stmt 0 discriminator 1
	tbz	x0, 1, .L118
.LVL157:
.L130:
.LBB724:
.LBB716:
.LBB715:
.LBB714:
.LBB713:
	.loc 12 437 0 is_stmt 1
	ldr	w0, [x29,160]
.LVL158:
	mov	w1, 0
	ldr	x2, [x29,120]
	mov	x3, 0
	bl	__alloc_pages_nodemask
.LVL159:
	mov	x1, x0
.LBE713:
.LBE714:
.LBE715:
.LBE716:
.LBE724:
	.loc 1 571 0
	cbz	x0, .L120
	.loc 1 574 0
	ldr	x0, [x29,144]
.LVL160:
	cbz	x0, .L121
	.loc 1 575 0
	mov	x0, 1
.LVL161:
	asr	w2, w26, 6
	lsl	x4, x0, x26
	add	x0, x29, 216
.LBB725:
.LBB726:
	.loc 10 63 0
	ldr	x3, [x24]
.LBE726:
.LBE725:
	.loc 1 576 0
	add	x9, x1, 32
.LBB739:
.LBB736:
.LBB727:
.LBB728:
.LBB729:
.LBB730:
.LBB731:
	.loc 2 276 0
	str	x9, [x29,184]
.LBE731:
.LBE730:
.LBE729:
.LBE728:
.LBE727:
.LBE736:
.LBE739:
	.loc 1 575 0
	ldr	x0, [x0,w2,sxtw 3]
.LBB740:
.LBB737:
.LBB734:
.LBB732:
	.loc 10 42 0
	str	x9, [x3,8]
.LBE732:
.LBE734:
.LBE737:
.LBE740:
	.loc 1 575 0
	orr	x4, x4, x0
	add	x0, x29, 216
.LBB741:
.LBB738:
.LBB735:
.LBB733:
	.loc 10 43 0
	str	x3, [x1,32]
	.loc 10 44 0
	str	x24, [x1,40]
.LBE733:
.LBE735:
.LBE738:
.LBE741:
	.loc 1 575 0
	str	x4, [x0,w2,sxtw 3]
.L122:
	.loc 1 583 0
	ldr	w0, [x29,164]
.LVL162:
	add	w0, w0, 1
	str	w0, [x29,164]
.LVL163:
.L118:
	.loc 1 556 0 discriminator 2
	add	x25, x25, 1
	.loc 1 556 0 is_stmt 0 discriminator 1
	cmp	x25, x21
	bne	.L123
.L120:
	.loc 1 591 0 is_stmt 1
	ldr	w0, [x29,164]
.LVL164:
	cbz	w0, .L114
	.loc 1 596 0
	ldr	x0, [x29,144]
.LVL165:
	add	x8, x28, 128
	mov	x1, x28
	cbnz	x0, .L138
	b	.L127
.LVL166:
.L128:
	add	x1, x1, 1
.LBB742:
.LBB743:
	.loc 1 494 0 discriminator 1
	cmp	x1, x8
	beq	.L127
.LVL167:
.L138:
	sub	w2, w1, w28
	.loc 1 495 0
	add	x3, x29, 240
	asr	w0, w2, 6
.LVL168:
	add	x0, x3, x0, sxtw 3
	ldr	x0, [x0,-24]
	lsr	x0, x0, x2
	tbz	x0, 0, .L128
.LBB744:
	.loc 1 496 0
	ldr	x0, [x24]
.LVL169:
.LBE744:
.LBB745:
.LBB746:
	.loc 10 108 0
	mov	x2, 256
	movk	x2, 0xdead, lsl 48
	.loc 10 107 0
	ldr	x4, [x0]
.LVL170:
	ldr	x3, [x0,8]
.LBB747:
.LBB748:
	.loc 10 89 0
	str	x3, [x4,8]
.LBB749:
.LBB750:
.LBB751:
	.loc 2 276 0
	str	x4, [x3]
.LBE751:
.LBE750:
.LBE749:
.LBE748:
.LBE747:
	.loc 10 108 0
	str	x2, [x0]
.LBE746:
.LBE745:
	.loc 1 499 0
	str	x1, [x0,-16]
.LBB752:
.LBB753:
	.loc 10 63 0
	ldr	x2, [x27]
.LBB754:
.LBB755:
	.loc 10 42 0
	str	x0, [x2,8]
	.loc 10 43 0
	str	x2, [x0]
.LBB756:
.LBB757:
.LBB758:
	.loc 2 276 0
	str	x0, [x29,200]
.LBE758:
.LBE757:
.LBE756:
	.loc 10 44 0
	str	x27, [x0,8]
.LBE755:
.LBE754:
.LBE753:
.LBE752:
.LBB759:
.LBB760:
.LBB761:
.LBB762:
	.loc 2 247 0 discriminator 5
	ldr	x0, [x29,184]
.LVL171:
.LBE762:
.LBE761:
.LBE760:
.LBE759:
	.loc 1 501 0
	cmp	x24, x0
	bne	.L128
.LVL172:
.L127:
.LBE743:
.LBE742:
	.loc 1 599 0
	ldr	x0, [x29,128]
.LVL173:
	mov	x2, x27
	ldr	x1, [x29,96]
	ldr	w3, [x29,164]
	ldr	w4, [x29,160]
.LVL174:
	bl	read_pages
.LVL175:
.L114:
.LBE786:
.LBE801:
	.loc 1 627 0
	ldr	x2, [x29,112]
.LVL176:
	.loc 1 632 0
	adrp	x0, __stack_chk_guard
.LVL177:
	ldr	x1, [x29,232]
	.loc 1 628 0
	ldr	w3, [x29,108]
	.loc 1 627 0
	str	x28, [x2]
	.loc 1 628 0
	str	w3, [x2,8]
	.loc 1 632 0
	ldr	x0, [x0,#:lo12:__stack_chk_guard]
	cmp	x1, x0
	bne	.L148
	ldp	x19, x20, [sp,16]
	.cfi_remember_state
	.cfi_restore 20
	.cfi_restore 19
	ldp	x21, x22, [sp,32]
	.cfi_restore 22
	.cfi_restore 21
.LVL178:
	ldp	x23, x24, [sp,48]
	.cfi_restore 24
	.cfi_restore 23
	ldp	x25, x26, [sp,64]
	.cfi_restore 26
	.cfi_restore 25
.LVL179:
	ldp	x27, x28, [sp,80]
	.cfi_restore 28
	.cfi_restore 27
	ldp	x29, x30, [sp], 240
	.cfi_restore 30
	.cfi_restore 29
	.cfi_def_cfa 31, 0
	ret
.LVL180:
.L116:
	.cfi_restore_state
	add	w0, w25, 1
.LBB802:
.LBB787:
.LBB763:
.LBB719:
	.loc 1 477 0 discriminator 2
	asr	w0, w0, 1
	b	.L117
.LVL181:
.L121:
.LBE719:
.LBE763:
.LBB764:
.LBB765:
	.loc 10 63 0
	ldr	x2, [x27]
.LBE765:
.LBE764:
	.loc 1 579 0
	add	x0, x1, 32
.LVL182:
	.loc 1 578 0
	str	x22, [x1,16]
	.loc 1 580 0
	ldr	x3, [x29,136]
.LBB775:
.LBB773:
.LBB766:
.LBB767:
	.loc 10 42 0
	str	x0, [x2,8]
.LBE767:
.LBE766:
.LBE773:
.LBE775:
	.loc 1 580 0
	cmp	x3, x23
.LBB776:
.LBB774:
.LBB772:
.LBB771:
.LBB768:
.LBB769:
.LBB770:
	.loc 2 276 0
	str	x0, [x29,200]
.LBE770:
.LBE769:
.LBE768:
	.loc 10 43 0
	str	x2, [x1,32]
	.loc 10 44 0
	str	x27, [x1,40]
.LBE771:
.LBE772:
.LBE774:
.LBE776:
	.loc 1 580 0
	bne	.L122
.LBB777:
.LBB778:
	.file 14 "/mnt/disk/jenkins/ci/workspace/chipset_patch_970_docker/opensource/component_code/vendor/huawei/extra/build/build_script/kirin_kernel_release/kernel/include/linux/page-flags.h"
	.loc 14 315 0
	mov	w0, 18
	bl	set_bit
.LVL183:
	b	.L122
.LVL184:
.L146:
	ldr	w0, [x29,136]
.LVL185:
	str	w0, [x29,108]
	b	.L114
.LVL186:
.L148:
.LBE778:
.LBE777:
.LBE787:
.LBE802:
	.loc 1 632 0
	bl	__stack_chk_fail
.LVL187:
	.cfi_endproc
.LFE2914:
	.size	pch_read_around, .-pch_read_around
	.align	2
	.global	pch_mmap_readextend
	.type	pch_mmap_readextend, %function
pch_mmap_readextend:
.LFB2916:
	.loc 1 747 0
	.cfi_startproc
.LVL188:
	stp	x29, x30, [sp, -64]!
	.cfi_def_cfa_offset 64
	.cfi_offset 29, -64
	.cfi_offset 30, -56
	add	x29, sp, 0
	.cfi_def_cfa_register 29
	stp	x19, x20, [sp,16]
	.cfi_offset 19, -48
	.cfi_offset 20, -40
	.loc 1 749 0
	adrp	x19, .LANCHOR0
	.loc 1 747 0
	stp	x21, x22, [sp,32]
	stp	x23, x24, [sp,48]
	.cfi_offset 21, -32
	.cfi_offset 22, -24
	.cfi_offset 23, -16
	.cfi_offset 24, -8
	.loc 1 749 0
	ldr	x4, [x19,#:lo12:.LANCHOR0]
	ldr	w4, [x4,272]
	cbnz	w4, .L161
.LVL189:
.L149:
	.loc 1 762 0
	ldp	x19, x20, [sp,16]
	.cfi_remember_state
	.cfi_restore 20
	.cfi_restore 19
	ldp	x21, x22, [sp,32]
	.cfi_restore 22
	.cfi_restore 21
.LVL190:
	ldp	x23, x24, [sp,48]
	.cfi_restore 24
	.cfi_restore 23
.LVL191:
	ldp	x29, x30, [sp], 64
	.cfi_restore 30
	.cfi_restore 29
	.cfi_def_cfa 31, 0
	ret
.LVL192:
.L161:
	.cfi_restore_state
	mov	x23, x3
	mov	x22, x2
	mov	x21, x1
	mov	x20, x0
	.loc 1 755 0
	bl	pch_lowmem_check
.LVL193:
	cbnz	w0, .L149
.LBB816:
.LBB817:
	.loc 1 640 0
	ldr	x24, [x22,312]
.LVL194:
	ldr	x2, [x20,80]
	.loc 1 641 0
	ldr	x0, [x24]
.LVL195:
	ldr	x20, [x0,80]
.LVL196:
	.loc 1 653 0
	tbnz	x2, 16, .L149
	.loc 1 655 0
	ldr	w1, [x21,16]
	cbz	w1, .L149
	.loc 1 657 0
	tbnz	x2, 15, .L149
	.loc 1 664 0
	ldr	w1, [x21,20]
	cmp	w1, 100
	bhi	.L149
.LBB818:
.LBB819:
.LBB820:
.LBB821:
	.file 15 "/mnt/disk/jenkins/ci/workspace/chipset_patch_970_docker/opensource/component_code/vendor/huawei/extra/build/build_script/kirin_kernel_release/kernel/include/linux/backing-dev.h"
	.loc 15 188 0
	cbz	x0, .L157
	.loc 15 193 0
	adrp	x2, blockdev_superblock
	.loc 15 191 0
	ldr	x1, [x0,40]
.LVL197:
	.loc 15 193 0
	ldr	x2, [x2,#:lo12:blockdev_superblock]
	cmp	x1, x2
	beq	.L162
	.loc 15 196 0
	ldr	x1, [x1,248]
.LVL198:
.L153:
	ldr	x0, [x1,80]
.LVL199:
.LBE821:
.LBE820:
.LBB823:
.LBB824:
	.loc 15 203 0
	ldr	x2, [x0,32]
	cbz	x2, .L155
	.loc 15 204 0
	ldr	x0, [x0,40]
.LVL200:
	mov	w1, 2
	blr	x2
.LVL201:
.L156:
.LBE824:
.LBE823:
.LBE819:
.LBE818:
	.loc 1 670 0
	cbnz	w0, .L149
.LBB829:
	.loc 1 718 0
	ldr	w2, [x21,8]
.LBE829:
	.loc 1 649 0
	sub	x20, x20, #1
	asr	x20, x20, 12
.LBB830:
	.loc 1 718 0
	ubfx	x2, x2, 1, 31
	add	x2, x2, x23
	cmp	x2, x20
	csel	x0, x2, x20, le
.LBE830:
	.loc 1 719 0
	cmp	x20, x0
	beq	.L149
	.loc 1 728 0
	ldr	x3, [x19,#:lo12:.LANCHOR0]
	.loc 1 727 0
	mov	x0, x24
	mov	x1, x22
	mov	x4, 0
	ldr	w3, [x3,280]
	bl	__do_page_cache_readahead
.LVL202:
	b	.L149
.LVL203:
.L155:
.LBB831:
.LBB828:
.LBB826:
.LBB825:
	.loc 15 205 0
	ldr	x0, [x1,424]
.LVL204:
	ldr	x0, [x0]
	and	w0, w0, 2
	b	.L156
.LVL205:
.L157:
.LBE825:
.LBE826:
.LBB827:
.LBB822:
	.loc 15 189 0
	adrp	x1, noop_backing_dev_info
	add	x1, x1, :lo12:noop_backing_dev_info
	b	.L153
.LVL206:
.L162:
	.loc 15 194 0
	bl	I_BDEV
.LVL207:
	ldr	x1, [x0,184]
	b	.L153
.LBE822:
.LBE827:
.LBE828:
.LBE831:
.LBE817:
.LBE816:
	.cfi_endproc
.LFE2916:
	.size	pch_mmap_readextend, .-pch_mmap_readextend
	.align	2
	.global	mount_fs_register_pch
	.type	mount_fs_register_pch, %function
mount_fs_register_pch:
.LFB2922:
	.loc 1 917 0
	.cfi_startproc
.LVL208:
	stp	x29, x30, [sp, -32]!
	.cfi_def_cfa_offset 32
	.cfi_offset 29, -32
	.cfi_offset 30, -24
	add	x29, sp, 0
	.cfi_def_cfa_register 29
	str	x19, [sp,16]
	.cfi_offset 19, -16
	.loc 1 918 0
	ldr	x1, [x0,8]
.LVL209:
	.loc 1 921 0
	mov	x0, 8208
.LVL210:
	movk	x0, 0xf2f5, lsl 16
	ldr	x2, [x1,96]
	cmp	x2, x0
	beq	.L176
	.loc 1 930 0
	adrp	x0, .LANCHOR0+8
	ldr	w0, [x0,#:lo12:.LANCHOR0+8]
	cmp	w0, 1
	bhi	.L177
.L163:
	.loc 1 952 0
	ldr	x19, [sp,16]
	.cfi_remember_state
	.cfi_restore 19
	ldp	x29, x30, [sp], 32
	.cfi_restore 30
	.cfi_restore 29
	.cfi_def_cfa 31, 0
	ret
.L176:
	.cfi_restore_state
.LBB832:
.LBB833:
	.loc 1 132 0
	adrp	x19, .LANCHOR0
	add	x3, x19, :lo12:.LANCHOR0
	ldr	x2, [x19,#:lo12:.LANCHOR0]
	ldr	w0, [x2,300]
.LBE833:
.LBE832:
	.loc 1 922 0
	tbz	x0, 2, .L165
.LBB834:
.LBB835:
	.loc 1 147 0
	and	w0, w0, -5
.LBE835:
.LBE834:
	.loc 1 935 0
	ldr	x3, [x2,128]
.LBB836:
.LBB837:
	.loc 1 157 0
	orr	w0, w0, 1
	str	w0, [x2,300]
.LBE837:
.LBE836:
	.loc 1 935 0
	cbnz	x3, .L163
	.loc 1 938 0
	ldr	x1, [x1,240]
.LVL211:
	cbz	x1, .L163
	.loc 1 943 0
	adrp	x0, .LC14
	.loc 1 941 0
	str	x1, [x2,128]
	.loc 1 943 0
	add	x0, x0, :lo12:.LC14
	str	x0, [x2]
	.loc 1 942 0
	adrp	x0, pch_io_idle_notify_handler
	.loc 1 944 0
	ldr	x3, [x19,#:lo12:.LANCHOR0]
	.loc 1 942 0
	add	x0, x0, :lo12:pch_io_idle_notify_handler
	str	x0, [x2,88]
	.loc 1 944 0
	mov	x1, x3
	ldr	x0, [x3,128]
	bl	blk_busy_idle_event_subscriber
.LVL212:
	.loc 1 945 0
	cbz	w0, .L163
	.loc 1 946 0 discriminator 1
	adrp	x1, .LANCHOR1
	adrp	x0, .LC15
	add	x1, x1, :lo12:.LANCHOR1
	add	x0, x0, :lo12:.LC15
	add	x1, x1, 392
	bl	printk
.LVL213:
	.loc 1 947 0
	ldr	x0, [x19,#:lo12:.LANCHOR0]
	.loc 1 948 0
	str	xzr, [x0]
	.loc 1 947 0
	str	xzr, [x0,88]
	.loc 1 949 0
	ldr	x0, [x19,#:lo12:.LANCHOR0]
	str	xzr, [x0,128]
	b	.L163
.LVL214:
.L165:
	.loc 1 926 0
	ldr	w0, [x3,8]
	cmp	w0, 1
	bls	.L163
	.loc 1 926 0 is_stmt 0 discriminator 1
	adrp	x1, .LANCHOR1
.LVL215:
	adrp	x0, .LC12
	add	x1, x1, :lo12:.LANCHOR1
	add	x0, x0, :lo12:.LC12
	add	x1, x1, 392
	bl	printk
.LVL216:
	b	.L163
.LVL217:
.L177:
	.loc 1 930 0 is_stmt 1 discriminator 1
	adrp	x1, .LANCHOR1
.LVL218:
	adrp	x0, .LC13
	add	x1, x1, :lo12:.LANCHOR1
	add	x0, x0, :lo12:.LC13
	add	x1, x1, 392
	bl	printk
.LVL219:
	b	.L163
	.cfi_endproc
.LFE2922:
	.size	mount_fs_register_pch, .-mount_fs_register_pch
	.align	2
	.global	umounting_fs_register_pch
	.type	umounting_fs_register_pch, %function
umounting_fs_register_pch:
.LFB2923:
	.loc 1 964 0
	.cfi_startproc
.LVL220:
	stp	x29, x30, [sp, -32]!
	.cfi_def_cfa_offset 32
	.cfi_offset 29, -32
	.cfi_offset 30, -24
	.loc 1 967 0
	mov	x1, 8208
	.loc 1 964 0
	add	x29, sp, 0
	.cfi_def_cfa_register 29
	str	x19, [sp,16]
	.cfi_offset 19, -16
	.loc 1 967 0
	movk	x1, 0xf2f5, lsl 16
	ldr	x0, [x0,96]
.LVL221:
	cmp	x0, x1
	beq	.L185
	.loc 1 992 0
	adrp	x0, .LANCHOR0+8
	ldr	w0, [x0,#:lo12:.LANCHOR0+8]
	cmp	w0, 1
	bhi	.L186
.L178:
	.loc 1 995 0
	ldr	x19, [sp,16]
	.cfi_remember_state
	.cfi_restore 19
	ldp	x29, x30, [sp], 32
	.cfi_restore 30
	.cfi_restore 29
	.cfi_def_cfa 31, 0
	ret
.L185:
	.cfi_restore_state
.LBB838:
.LBB839:
	.loc 1 127 0
	adrp	x19, .LANCHOR0
	add	x2, x19, :lo12:.LANCHOR0
	ldr	x0, [x19,#:lo12:.LANCHOR0]
	ldr	w1, [x0,300]
.LBE839:
.LBE838:
	.loc 1 968 0
	tbz	x1, 0, .L180
.LBB840:
.LBB841:
	.loc 1 142 0
	and	w1, w1, -2
.LBE841:
.LBE840:
	.loc 1 972 0
	ldr	x2, [x0,128]
.LBB842:
.LBB843:
	.loc 1 167 0
	orr	w1, w1, 2
	str	w1, [x0,300]
.LBE843:
.LBE842:
	.loc 1 972 0
	cbz	x2, .L178
	.loc 1 973 0
	add	x0, x0, 136
	bl	del_timer_sync
.LVL222:
	.loc 1 974 0
	ldr	x0, [x19,#:lo12:.LANCHOR0]
	add	x0, x0, 184
	bl	flush_work
.LVL223:
	.loc 1 975 0
	ldr	x0, [x19,#:lo12:.LANCHOR0]
	add	x0, x0, 216
	bl	down
.LVL224:
	.loc 1 976 0
	ldr	x0, [x19,#:lo12:.LANCHOR0]
	mov	x1, x0
	ldr	x0, [x0,128]
	bl	blk_busy_idle_event_unsubscriber
.LVL225:
	.loc 1 977 0
	cbnz	w0, .L187
	.loc 1 982 0
	ldr	x0, [x19,#:lo12:.LANCHOR0]
	.loc 1 983 0
	str	xzr, [x0]
	.loc 1 982 0
	str	xzr, [x0,88]
	.loc 1 984 0
	ldr	x1, [x19,#:lo12:.LANCHOR0]
	.loc 1 985 0
	add	x0, x1, 216
	.loc 1 984 0
	str	xzr, [x1,128]
	.loc 1 985 0
	bl	up
.LVL226:
	.loc 1 995 0
	ldr	x19, [sp,16]
	.cfi_remember_state
	.cfi_restore 19
	ldp	x29, x30, [sp], 32
	.cfi_restore 29
	.cfi_restore 30
	.cfi_def_cfa 31, 0
	ret
.L180:
	.cfi_restore_state
	.loc 1 988 0
	ldr	w0, [x2,8]
	cmp	w0, 1
	bls	.L178
	.loc 1 988 0 is_stmt 0 discriminator 1
	adrp	x1, .LANCHOR1
	adrp	x0, .LC17
	add	x1, x1, :lo12:.LANCHOR1
	add	x0, x0, :lo12:.LC17
	add	x1, x1, 416
	bl	printk
.LVL227:
	b	.L178
.L186:
	.loc 1 992 0 is_stmt 1 discriminator 1
	adrp	x1, .LANCHOR1
	adrp	x0, .LC13
	add	x1, x1, :lo12:.LANCHOR1
	add	x0, x0, :lo12:.LC13
	add	x1, x1, 416
	bl	printk
.LVL228:
	b	.L178
.L187:
	.loc 1 978 0 discriminator 1
	adrp	x1, .LANCHOR1
	adrp	x0, .LC16
	add	x1, x1, :lo12:.LANCHOR1
	add	x0, x0, :lo12:.LC16
	add	x1, x1, 416
	bl	printk
.LVL229:
	.loc 1 979 0
	ldr	x0, [x19,#:lo12:.LANCHOR0]
	add	x0, x0, 216
	bl	up
.LVL230:
	.loc 1 980 0
	b	.L178
	.cfi_endproc
.LFE2923:
	.size	umounting_fs_register_pch, .-umounting_fs_register_pch
	.align	2
	.global	umounted_fs_register_pch
	.type	umounted_fs_register_pch, %function
umounted_fs_register_pch:
.LFB2924:
	.loc 1 1006 0
	.cfi_startproc
.LVL231:
	stp	x29, x30, [sp, -16]!
	.cfi_def_cfa_offset 16
	.cfi_offset 29, -16
	.cfi_offset 30, -8
	.loc 1 1007 0
	mov	x1, 8208
	.loc 1 1006 0
	add	x29, sp, 0
	.cfi_def_cfa_register 29
	.loc 1 1007 0
	ldr	x0, [x0,96]
.LVL232:
	movk	x1, 0xf2f5, lsl 16
	cmp	x0, x1
	beq	.L192
	.loc 1 1016 0
	adrp	x0, .LANCHOR0+8
	ldr	w0, [x0,#:lo12:.LANCHOR0+8]
	cmp	w0, 1
	bhi	.L193
.L188:
	.loc 1 1020 0
	ldp	x29, x30, [sp], 16
	.cfi_remember_state
	.cfi_restore 30
	.cfi_restore 29
	.cfi_def_cfa 31, 0
	ret
.L192:
	.cfi_restore_state
.LBB844:
.LBB845:
	.loc 1 137 0
	adrp	x0, .LANCHOR0
	add	x2, x0, :lo12:.LANCHOR0
	ldr	x1, [x0,#:lo12:.LANCHOR0]
	ldr	w0, [x1,300]
.LBE845:
.LBE844:
	.loc 1 1008 0
	tbnz	x0, 1, .L194
	.loc 1 1012 0
	ldr	w0, [x2,8]
	cmp	w0, 1
	bls	.L188
	.loc 1 1012 0 is_stmt 0 discriminator 1
	adrp	x1, .LANCHOR1
	adrp	x0, .LC12
	add	x1, x1, :lo12:.LANCHOR1
	add	x0, x0, :lo12:.LC12
	add	x1, x1, 448
	bl	printk
.LVL233:
	b	.L188
.L194:
.LBB846:
.LBB847:
	.loc 1 152 0 is_stmt 1
	and	w0, w0, -3
.LBE847:
.LBE846:
.LBB848:
.LBB849:
	.loc 1 162 0
	orr	w0, w0, 4
	str	w0, [x1,300]
.LBE849:
.LBE848:
	.loc 1 1020 0
	ldp	x29, x30, [sp], 16
	.cfi_remember_state
	.cfi_restore 29
	.cfi_restore 30
	.cfi_def_cfa 31, 0
	ret
.L193:
	.cfi_restore_state
	.loc 1 1016 0 discriminator 1
	adrp	x1, .LANCHOR1
	adrp	x0, .LC13
	add	x1, x1, :lo12:.LANCHOR1
	add	x0, x0, :lo12:.LC13
	add	x1, x1, 448
	bl	printk
.LVL234:
	b	.L188
	.cfi_endproc
.LFE2924:
	.size	umounted_fs_register_pch, .-umounted_fs_register_pch
	.global	pch_info
	.global	g_pch_print_level
	.section	.rodata
	.align	3
.LANCHOR1 = . + 0
	.type	__func__.35167, %object
	.size	__func__.35167, 17
__func__.35167:
	.string	"pch_timeout_work"
	.zero	7
	.type	__func__.35206, %object
	.size	__func__.35206, 29
__func__.35206:
	.string	"pch_emui_bootstat_proc_write"
	.zero	3
	.type	__func__.35217, %object
	.size	__func__.35217, 28
__func__.35217:
	.string	"hisi_page_cache_manage_init"
	.zero	4
	.type	__func__.35211, %object
	.size	__func__.35211, 25
__func__.35211:
	.string	"pch_emui_boot_check_init"
	.zero	7
	.type	pch_emui_boot_done_fops, %object
	.size	pch_emui_boot_done_fops, 240
pch_emui_boot_done_fops:
	.zero	8
	.xword	seq_lseek
	.xword	seq_read
	.xword	pch_emui_bootstat_proc_write
	.zero	64
	.xword	pch_emui_bootstat_proc_open
	.zero	8
	.xword	single_release
	.zero	120
	.type	__func__.35223, %object
	.size	__func__.35223, 28
__func__.35223:
	.string	"hisi_page_cache_manage_exit"
	.zero	4
	.type	__func__.35180, %object
	.size	__func__.35180, 22
__func__.35180:
	.string	"mount_fs_register_pch"
	.zero	2
	.type	__func__.35185, %object
	.size	__func__.35185, 26
__func__.35185:
	.string	"umounting_fs_register_pch"
	.zero	6
	.type	__func__.35189, %object
	.size	__func__.35189, 25
__func__.35189:
	.string	"umounted_fs_register_pch"
	.section	.exitcall.exit,"aw",%progbits
	.align	3
	.type	__exitcall_hisi_page_cache_manage_exit, %object
	.size	__exitcall_hisi_page_cache_manage_exit, 8
__exitcall_hisi_page_cache_manage_exit:
	.xword	hisi_page_cache_manage_exit
	.section	.initcall6.init,"aw",%progbits
	.align	3
	.type	__initcall_hisi_page_cache_manage_init6, %object
	.size	__initcall_hisi_page_cache_manage_init6, 8
__initcall_hisi_page_cache_manage_init6:
	.xword	hisi_page_cache_manage_init
	.data
	.align	2
.LANCHOR2 = . + 0
	.type	page_cache_func_enable, %object
	.size	page_cache_func_enable, 4
page_cache_func_enable:
	.word	1
	.section	.rodata.str1.8,"aMS",%progbits,1
	.align	3
.LC0:
	.string	"/data"
	.zero	2
.LC1:
	.string	"\0013%s: err userdata_state = %d.\n"
.LC2:
	.string	"%d\n"
	.zero	4
.LC3:
	.string	"\0013%s: input error.\n"
	.zero	4
.LC4:
	.string	"\0013%s: module init ++.\n"
	.zero	1
.LC5:
	.string	"\0013%s: device not supported.\n"
	.zero	3
.LC6:
	.string	"pch_status"
	.zero	5
.LC7:
	.string	"\0013%s: proc mk error.\n"
	.zero	2
.LC8:
	.string	"pch_status/pch_enabled"
	.zero	1
.LC9:
	.string	"\0013%s: module init --.\n"
	.zero	1
.LC10:
	.string	"\0013%s: module exit ++.\n"
	.zero	1
.LC11:
	.string	"\0013%s: module exit --.\n"
	.zero	1
.LC12:
	.string	"\0013%s: data remount, return.\n"
	.zero	3
.LC13:
	.string	"\0013%s: other partitions, return.\n"
	.zero	7
.LC14:
	.string	"pagecache_helper"
	.zero	7
.LC15:
	.string	"\0013%s: blk busy/idle init failed.\n"
	.zero	6
.LC16:
	.string	"\0013%s: blk busy/idle clear failed.\n"
	.zero	5
.LC17:
	.string	"\0013%s: data re-umount, return.\n"
	.bss
	.align	3
.LANCHOR0 = . + 0
	.type	pch_info, %object
	.size	pch_info, 8
pch_info:
	.zero	8
	.type	g_pch_print_level, %object
	.size	g_pch_print_level, 4
g_pch_print_level:
	.zero	4
	.text
.Letext0:
	.file 16 "/mnt/disk/jenkins/ci/workspace/chipset_patch_970_docker/opensource/component_code/vendor/huawei/extra/build/build_script/kirin_kernel_release/kernel/include/uapi/asm-generic/int-ll64.h"
	.file 17 "/mnt/disk/jenkins/ci/workspace/chipset_patch_970_docker/opensource/component_code/vendor/huawei/extra/build/build_script/kirin_kernel_release/kernel/include/asm-generic/int-ll64.h"
	.file 18 "/mnt/disk/jenkins/ci/workspace/chipset_patch_970_docker/opensource/component_code/vendor/huawei/extra/build/build_script/kirin_kernel_release/kernel/include/uapi/asm-generic/posix_types.h"
	.file 19 "/mnt/disk/jenkins/ci/workspace/chipset_patch_970_docker/opensource/component_code/vendor/huawei/extra/build/build_script/kirin_kernel_release/kernel/include/linux/types.h"
	.file 20 "/mnt/disk/jenkins/ci/workspace/chipset_patch_970_docker/opensource/component_code/vendor/huawei/extra/build/build_script/kirin_kernel_release/kernel/include/linux/export.h"
	.file 21 "/mnt/disk/jenkins/ci/workspace/chipset_patch_970_docker/opensource/component_code/vendor/huawei/extra/build/build_script/kirin_kernel_release/kernel/include/linux/init.h"
	.file 22 "/mnt/disk/jenkins/ci/workspace/chipset_patch_970_docker/opensource/component_code/vendor/huawei/extra/build/build_script/kirin_kernel_release/kernel/include/linux/capability.h"
	.file 23 "/mnt/disk/jenkins/ci/workspace/chipset_patch_970_docker/opensource/component_code/vendor/huawei/extra/build/build_script/kirin_kernel_release/kernel/include/asm-generic/bug.h"
	.file 24 "/mnt/disk/jenkins/ci/workspace/chipset_patch_970_docker/opensource/component_code/vendor/huawei/extra/build/build_script/kirin_kernel_release/kernel/include/linux/restart_block.h"
	.file 25 "/mnt/disk/jenkins/ci/workspace/chipset_patch_970_docker/opensource/component_code/vendor/huawei/extra/build/build_script/kirin_kernel_release/kernel/include/uapi/linux/time.h"
	.file 26 "/mnt/disk/jenkins/ci/workspace/chipset_patch_970_docker/opensource/component_code/vendor/huawei/extra/build/build_script/kirin_kernel_release/kernel/arch/arm64/include/asm/compat.h"
	.file 27 "/mnt/disk/jenkins/ci/workspace/chipset_patch_970_docker/opensource/component_code/vendor/huawei/extra/build/build_script/kirin_kernel_release/kernel/arch/arm64/include/asm/thread_info.h"
	.file 28 "/mnt/disk/jenkins/ci/workspace/chipset_patch_970_docker/opensource/component_code/vendor/huawei/extra/build/build_script/kirin_kernel_release/kernel/arch/arm64/include/uapi/asm/ptrace.h"
	.file 29 "/mnt/disk/jenkins/ci/workspace/chipset_patch_970_docker/opensource/component_code/vendor/huawei/extra/build/build_script/kirin_kernel_release/kernel/arch/arm64/include/asm/spinlock_types.h"
	.file 30 "/mnt/disk/jenkins/ci/workspace/chipset_patch_970_docker/opensource/component_code/vendor/huawei/extra/build/build_script/kirin_kernel_release/kernel/include/linux/spinlock_types.h"
	.file 31 "/mnt/disk/jenkins/ci/workspace/chipset_patch_970_docker/opensource/component_code/vendor/huawei/extra/build/build_script/kirin_kernel_release/kernel/include/linux/rwlock_types.h"
	.file 32 "/mnt/disk/jenkins/ci/workspace/chipset_patch_970_docker/opensource/component_code/vendor/huawei/extra/build/build_script/kirin_kernel_release/kernel/arch/arm64/include/asm/fpsimd.h"
	.file 33 "/mnt/disk/jenkins/ci/workspace/chipset_patch_970_docker/opensource/component_code/vendor/huawei/extra/build/build_script/kirin_kernel_release/kernel/include/linux/jump_label.h"
	.file 34 "/mnt/disk/jenkins/ci/workspace/chipset_patch_970_docker/opensource/component_code/vendor/huawei/extra/build/build_script/kirin_kernel_release/kernel/include/asm-generic/atomic-long.h"
	.file 35 "/mnt/disk/jenkins/ci/workspace/chipset_patch_970_docker/opensource/component_code/vendor/huawei/extra/build/build_script/kirin_kernel_release/kernel/arch/arm64/include/asm/processor.h"
	.file 36 "/mnt/disk/jenkins/ci/workspace/chipset_patch_970_docker/opensource/component_code/vendor/huawei/extra/build/build_script/kirin_kernel_release/kernel/include/linux/seqlock.h"
	.file 37 "/mnt/disk/jenkins/ci/workspace/chipset_patch_970_docker/opensource/component_code/vendor/huawei/extra/build/build_script/kirin_kernel_release/kernel/include/linux/time64.h"
	.file 38 "/mnt/disk/jenkins/ci/workspace/chipset_patch_970_docker/opensource/component_code/vendor/huawei/extra/build/build_script/kirin_kernel_release/kernel/include/linux/plist.h"
	.file 39 "/mnt/disk/jenkins/ci/workspace/chipset_patch_970_docker/opensource/component_code/vendor/huawei/extra/build/build_script/kirin_kernel_release/kernel/include/linux/cpumask.h"
	.file 40 "/mnt/disk/jenkins/ci/workspace/chipset_patch_970_docker/opensource/component_code/vendor/huawei/extra/build/build_script/kirin_kernel_release/kernel/include/linux/wait.h"
	.file 41 "/mnt/disk/jenkins/ci/workspace/chipset_patch_970_docker/opensource/component_code/vendor/huawei/extra/build/build_script/kirin_kernel_release/kernel/include/linux/completion.h"
	.file 42 "/mnt/disk/jenkins/ci/workspace/chipset_patch_970_docker/opensource/component_code/vendor/huawei/extra/build/build_script/kirin_kernel_release/kernel/include/linux/ktime.h"
	.file 43 "/mnt/disk/jenkins/ci/workspace/chipset_patch_970_docker/opensource/component_code/vendor/huawei/extra/build/build_script/kirin_kernel_release/kernel/include/linux/rbtree.h"
	.file 44 "/mnt/disk/jenkins/ci/workspace/chipset_patch_970_docker/opensource/component_code/vendor/huawei/extra/build/build_script/kirin_kernel_release/kernel/include/linux/nodemask.h"
	.file 45 "/mnt/disk/jenkins/ci/workspace/chipset_patch_970_docker/opensource/component_code/vendor/huawei/extra/build/build_script/kirin_kernel_release/kernel/include/linux/osq_lock.h"
	.file 46 "/mnt/disk/jenkins/ci/workspace/chipset_patch_970_docker/opensource/component_code/vendor/huawei/extra/build/build_script/kirin_kernel_release/kernel/include/linux/rwsem.h"
	.file 47 "/mnt/disk/jenkins/ci/workspace/chipset_patch_970_docker/opensource/component_code/vendor/huawei/extra/build/build_script/kirin_kernel_release/kernel/include/linux/sched.h"
	.file 48 "/mnt/disk/jenkins/ci/workspace/chipset_patch_970_docker/opensource/component_code/vendor/huawei/extra/build/build_script/kirin_kernel_release/kernel/include/linux/mm_types.h"
	.file 49 "/mnt/disk/jenkins/ci/workspace/chipset_patch_970_docker/opensource/component_code/vendor/huawei/extra/build/build_script/kirin_kernel_release/kernel/include/linux/lockdep.h"
	.file 50 "/mnt/disk/jenkins/ci/workspace/chipset_patch_970_docker/opensource/component_code/vendor/huawei/extra/build/build_script/kirin_kernel_release/kernel/include/linux/uprobes.h"
	.file 51 "/mnt/disk/jenkins/ci/workspace/chipset_patch_970_docker/opensource/component_code/vendor/huawei/extra/build/build_script/kirin_kernel_release/kernel/include/linux/timer.h"
	.file 52 "/mnt/disk/jenkins/ci/workspace/chipset_patch_970_docker/opensource/component_code/vendor/huawei/extra/build/build_script/kirin_kernel_release/kernel/include/linux/uidgid.h"
	.file 53 "/mnt/disk/jenkins/ci/workspace/chipset_patch_970_docker/opensource/component_code/vendor/huawei/extra/build/build_script/kirin_kernel_release/kernel/include/linux/sysctl.h"
	.file 54 "/mnt/disk/jenkins/ci/workspace/chipset_patch_970_docker/opensource/component_code/vendor/huawei/extra/build/build_script/kirin_kernel_release/kernel/include/linux/stddef.h"
	.file 55 "/mnt/disk/jenkins/ci/workspace/chipset_patch_970_docker/opensource/component_code/vendor/huawei/extra/build/build_script/kirin_kernel_release/kernel/arch/arm64/include/asm/pgtable-types.h"
	.file 56 "/mnt/disk/jenkins/ci/workspace/chipset_patch_970_docker/opensource/component_code/vendor/huawei/extra/build/build_script/kirin_kernel_release/kernel/arch/arm64/include/asm/page.h"
	.file 57 "/mnt/disk/jenkins/ci/workspace/chipset_patch_970_docker/opensource/component_code/vendor/huawei/extra/build/build_script/kirin_kernel_release/kernel/include/linux/pfn.h"
	.file 58 "/mnt/disk/jenkins/ci/workspace/chipset_patch_970_docker/opensource/component_code/vendor/huawei/extra/build/build_script/kirin_kernel_release/kernel/include/linux/llist.h"
	.file 59 "/mnt/disk/jenkins/ci/workspace/chipset_patch_970_docker/opensource/component_code/vendor/huawei/extra/build/build_script/kirin_kernel_release/kernel/include/linux/smp.h"
	.file 60 "/mnt/disk/jenkins/ci/workspace/chipset_patch_970_docker/opensource/component_code/vendor/huawei/extra/build/build_script/kirin_kernel_release/kernel/arch/arm64/include/asm/smp.h"
	.file 61 "/mnt/disk/jenkins/ci/workspace/chipset_patch_970_docker/opensource/component_code/vendor/huawei/extra/build/build_script/kirin_kernel_release/kernel/arch/arm64/include/asm/mmu.h"
	.file 62 "/mnt/disk/jenkins/ci/workspace/chipset_patch_970_docker/opensource/component_code/vendor/huawei/extra/build/build_script/kirin_kernel_release/kernel/include/linux/fs.h"
	.file 63 "/mnt/disk/jenkins/ci/workspace/chipset_patch_970_docker/opensource/component_code/vendor/huawei/extra/build/build_script/kirin_kernel_release/kernel/include/linux/mm.h"
	.file 64 "/mnt/disk/jenkins/ci/workspace/chipset_patch_970_docker/opensource/component_code/vendor/huawei/extra/build/build_script/kirin_kernel_release/kernel/include/linux/blk-cgroup.h"
	.file 65 "/mnt/disk/jenkins/ci/workspace/chipset_patch_970_docker/opensource/component_code/vendor/huawei/extra/build/build_script/kirin_kernel_release/kernel/include/linux/user_namespace.h"
	.file 66 "/mnt/disk/jenkins/ci/workspace/chipset_patch_970_docker/opensource/component_code/vendor/huawei/extra/build/build_script/kirin_kernel_release/kernel/include/asm-generic/cputime_jiffies.h"
	.file 67 "/mnt/disk/jenkins/ci/workspace/chipset_patch_970_docker/opensource/component_code/vendor/huawei/extra/build/build_script/kirin_kernel_release/kernel/include/uapi/asm-generic/signal.h"
	.file 68 "/mnt/disk/jenkins/ci/workspace/chipset_patch_970_docker/opensource/component_code/vendor/huawei/extra/build/build_script/kirin_kernel_release/kernel/include/uapi/asm-generic/signal-defs.h"
	.file 69 "/mnt/disk/jenkins/ci/workspace/chipset_patch_970_docker/opensource/component_code/vendor/huawei/extra/build/build_script/kirin_kernel_release/kernel/include/uapi/asm-generic/siginfo.h"
	.file 70 "/mnt/disk/jenkins/ci/workspace/chipset_patch_970_docker/opensource/component_code/vendor/huawei/extra/build/build_script/kirin_kernel_release/kernel/include/linux/signal.h"
	.file 71 "/mnt/disk/jenkins/ci/workspace/chipset_patch_970_docker/opensource/component_code/vendor/huawei/extra/build/build_script/kirin_kernel_release/kernel/include/linux/pid.h"
	.file 72 "/mnt/disk/jenkins/ci/workspace/chipset_patch_970_docker/opensource/component_code/vendor/huawei/extra/build/build_script/kirin_kernel_release/kernel/include/linux/mmzone.h"
	.file 73 "/mnt/disk/jenkins/ci/workspace/chipset_patch_970_docker/opensource/component_code/vendor/huawei/extra/build/build_script/kirin_kernel_release/kernel/include/linux/page_ext.h"
	.file 74 "/mnt/disk/jenkins/ci/workspace/chipset_patch_970_docker/opensource/component_code/vendor/huawei/extra/build/build_script/kirin_kernel_release/kernel/include/linux/mutex.h"
	.file 75 "/mnt/disk/jenkins/ci/workspace/chipset_patch_970_docker/opensource/component_code/vendor/huawei/extra/build/build_script/kirin_kernel_release/kernel/include/linux/notifier.h"
	.file 76 "/mnt/disk/jenkins/ci/workspace/chipset_patch_970_docker/opensource/component_code/vendor/huawei/extra/build/build_script/kirin_kernel_release/kernel/include/linux/seccomp.h"
	.file 77 "/mnt/disk/jenkins/ci/workspace/chipset_patch_970_docker/opensource/component_code/vendor/huawei/extra/build/build_script/kirin_kernel_release/kernel/include/uapi/linux/resource.h"
	.file 78 "/mnt/disk/jenkins/ci/workspace/chipset_patch_970_docker/opensource/component_code/vendor/huawei/extra/build/build_script/kirin_kernel_release/kernel/include/linux/timerqueue.h"
	.file 79 "/mnt/disk/jenkins/ci/workspace/chipset_patch_970_docker/opensource/component_code/vendor/huawei/extra/build/build_script/kirin_kernel_release/kernel/include/linux/hrtimer.h"
	.file 80 "/mnt/disk/jenkins/ci/workspace/chipset_patch_970_docker/opensource/component_code/vendor/huawei/extra/build/build_script/kirin_kernel_release/kernel/include/linux/task_io_accounting.h"
	.file 81 "/mnt/disk/jenkins/ci/workspace/chipset_patch_970_docker/opensource/component_code/vendor/huawei/extra/build/build_script/kirin_kernel_release/kernel/include/linux/assoc_array.h"
	.file 82 "/mnt/disk/jenkins/ci/workspace/chipset_patch_970_docker/opensource/component_code/vendor/huawei/extra/build/build_script/kirin_kernel_release/kernel/include/linux/key.h"
	.file 83 "/mnt/disk/jenkins/ci/workspace/chipset_patch_970_docker/opensource/component_code/vendor/huawei/extra/build/build_script/kirin_kernel_release/kernel/include/linux/cred.h"
	.file 84 "/mnt/disk/jenkins/ci/workspace/chipset_patch_970_docker/opensource/component_code/vendor/huawei/extra/build/build_script/kirin_kernel_release/kernel/include/linux/idr.h"
	.file 85 "/mnt/disk/jenkins/ci/workspace/chipset_patch_970_docker/opensource/component_code/vendor/huawei/extra/build/build_script/kirin_kernel_release/kernel/include/linux/percpu-refcount.h"
	.file 86 "/mnt/disk/jenkins/ci/workspace/chipset_patch_970_docker/opensource/component_code/vendor/huawei/extra/build/build_script/kirin_kernel_release/kernel/include/linux/rcu_sync.h"
	.file 87 "/mnt/disk/jenkins/ci/workspace/chipset_patch_970_docker/opensource/component_code/vendor/huawei/extra/build/build_script/kirin_kernel_release/kernel/include/linux/percpu-rwsem.h"
	.file 88 "/mnt/disk/jenkins/ci/workspace/chipset_patch_970_docker/opensource/component_code/vendor/huawei/extra/build/build_script/kirin_kernel_release/kernel/include/linux/bpf-cgroup.h"
	.file 89 "/mnt/disk/jenkins/ci/workspace/chipset_patch_970_docker/opensource/component_code/vendor/huawei/extra/build/build_script/kirin_kernel_release/kernel/include/linux/cgroup-defs.h"
	.file 90 "/mnt/disk/jenkins/ci/workspace/chipset_patch_970_docker/opensource/component_code/vendor/huawei/extra/build/build_script/kirin_kernel_release/kernel/include/linux/kernfs.h"
	.file 91 "/mnt/disk/jenkins/ci/workspace/chipset_patch_970_docker/opensource/component_code/vendor/huawei/extra/build/build_script/kirin_kernel_release/kernel/include/linux/seq_file.h"
	.file 92 "/mnt/disk/jenkins/ci/workspace/chipset_patch_970_docker/opensource/component_code/vendor/huawei/extra/build/build_script/kirin_kernel_release/kernel/include/uapi/linux/taskstats.h"
	.file 93 "/mnt/disk/jenkins/ci/workspace/chipset_patch_970_docker/opensource/component_code/vendor/huawei/extra/build/build_script/kirin_kernel_release/kernel/include/linux/nsproxy.h"
	.file 94 "/mnt/disk/jenkins/ci/workspace/chipset_patch_970_docker/opensource/component_code/vendor/huawei/extra/build/build_script/kirin_kernel_release/kernel/include/linux/bio.h"
	.file 95 "/mnt/disk/jenkins/ci/workspace/chipset_patch_970_docker/opensource/component_code/vendor/huawei/extra/build/build_script/kirin_kernel_release/kernel/include/linux/blkdev.h"
	.file 96 "/mnt/disk/jenkins/ci/workspace/chipset_patch_970_docker/opensource/component_code/vendor/huawei/extra/build/build_script/kirin_kernel_release/kernel/include/linux/swap.h"
	.file 97 "/mnt/disk/jenkins/ci/workspace/chipset_patch_970_docker/opensource/component_code/vendor/huawei/extra/build/build_script/kirin_kernel_release/kernel/include/linux/backing-dev-defs.h"
	.file 98 "/mnt/disk/jenkins/ci/workspace/chipset_patch_970_docker/opensource/component_code/vendor/huawei/extra/build/build_script/kirin_kernel_release/kernel/include/linux/iocontext.h"
	.file 99 "/mnt/disk/jenkins/ci/workspace/chipset_patch_970_docker/opensource/component_code/vendor/huawei/extra/build/build_script/kirin_kernel_release/kernel/include/linux/stat.h"
	.file 100 "/mnt/disk/jenkins/ci/workspace/chipset_patch_970_docker/opensource/component_code/vendor/huawei/extra/build/build_script/kirin_kernel_release/kernel/include/uapi/linux/elf.h"
	.file 101 "/mnt/disk/jenkins/ci/workspace/chipset_patch_970_docker/opensource/component_code/vendor/huawei/extra/build/build_script/kirin_kernel_release/kernel/include/linux/kobject_ns.h"
	.file 102 "/mnt/disk/jenkins/ci/workspace/chipset_patch_970_docker/opensource/component_code/vendor/huawei/extra/build/build_script/kirin_kernel_release/kernel/include/linux/sysfs.h"
	.file 103 "/mnt/disk/jenkins/ci/workspace/chipset_patch_970_docker/opensource/component_code/vendor/huawei/extra/build/build_script/kirin_kernel_release/kernel/include/linux/kobject.h"
	.file 104 "/mnt/disk/jenkins/ci/workspace/chipset_patch_970_docker/opensource/component_code/vendor/huawei/extra/build/build_script/kirin_kernel_release/kernel/include/linux/kref.h"
	.file 105 "/mnt/disk/jenkins/ci/workspace/chipset_patch_970_docker/opensource/component_code/vendor/huawei/extra/build/build_script/kirin_kernel_release/kernel/include/linux/moduleparam.h"
	.file 106 "/mnt/disk/jenkins/ci/workspace/chipset_patch_970_docker/opensource/component_code/vendor/huawei/extra/build/build_script/kirin_kernel_release/kernel/include/linux/module.h"
	.file 107 "/mnt/disk/jenkins/ci/workspace/chipset_patch_970_docker/opensource/component_code/vendor/huawei/extra/build/build_script/kirin_kernel_release/kernel/include/linux/rbtree_latch.h"
	.file 108 "/mnt/disk/jenkins/ci/workspace/chipset_patch_970_docker/opensource/component_code/vendor/huawei/extra/build/build_script/kirin_kernel_release/kernel/arch/arm64/include/asm/module.h"
	.file 109 "/mnt/disk/jenkins/ci/workspace/chipset_patch_970_docker/opensource/component_code/vendor/huawei/extra/build/build_script/kirin_kernel_release/kernel/include/linux/tracepoint-defs.h"
	.file 110 "/mnt/disk/jenkins/ci/workspace/chipset_patch_970_docker/opensource/component_code/vendor/huawei/extra/build/build_script/kirin_kernel_release/kernel/include/linux/klist.h"
	.file 111 "/mnt/disk/jenkins/ci/workspace/chipset_patch_970_docker/opensource/component_code/vendor/huawei/extra/build/build_script/kirin_kernel_release/kernel/include/linux/list_bl.h"
	.file 112 "/mnt/disk/jenkins/ci/workspace/chipset_patch_970_docker/opensource/component_code/vendor/huawei/extra/build/build_script/kirin_kernel_release/kernel/include/linux/lockref.h"
	.file 113 "/mnt/disk/jenkins/ci/workspace/chipset_patch_970_docker/opensource/component_code/vendor/huawei/extra/build/build_script/kirin_kernel_release/kernel/include/linux/dcache.h"
	.file 114 "/mnt/disk/jenkins/ci/workspace/chipset_patch_970_docker/opensource/component_code/vendor/huawei/extra/build/build_script/kirin_kernel_release/kernel/include/linux/mount.h"
	.file 115 "/mnt/disk/jenkins/ci/workspace/chipset_patch_970_docker/opensource/component_code/vendor/huawei/extra/build/build_script/kirin_kernel_release/kernel/include/linux/path.h"
	.file 116 "/mnt/disk/jenkins/ci/workspace/chipset_patch_970_docker/opensource/component_code/vendor/huawei/extra/build/build_script/kirin_kernel_release/kernel/include/linux/shrinker.h"
	.file 117 "/mnt/disk/jenkins/ci/workspace/chipset_patch_970_docker/opensource/component_code/vendor/huawei/extra/build/build_script/kirin_kernel_release/kernel/include/linux/list_lru.h"
	.file 118 "/mnt/disk/jenkins/ci/workspace/chipset_patch_970_docker/opensource/component_code/vendor/huawei/extra/build/build_script/kirin_kernel_release/kernel/include/linux/radix-tree.h"
	.file 119 "/mnt/disk/jenkins/ci/workspace/chipset_patch_970_docker/opensource/component_code/vendor/huawei/extra/build/build_script/kirin_kernel_release/kernel/include/uapi/linux/fiemap.h"
	.file 120 "/mnt/disk/jenkins/ci/workspace/chipset_patch_970_docker/opensource/component_code/vendor/huawei/extra/build/build_script/kirin_kernel_release/kernel/include/linux/migrate_mode.h"
	.file 121 "/mnt/disk/jenkins/ci/workspace/chipset_patch_970_docker/opensource/component_code/vendor/huawei/extra/build/build_script/kirin_kernel_release/kernel/include/linux/bvec.h"
	.file 122 "/mnt/disk/jenkins/ci/workspace/chipset_patch_970_docker/opensource/component_code/vendor/huawei/extra/build/build_script/kirin_kernel_release/kernel/include/linux/blk_types.h"
	.file 123 "/mnt/disk/jenkins/ci/workspace/chipset_patch_970_docker/opensource/component_code/vendor/huawei/extra/build/build_script/kirin_kernel_release/kernel/include/linux/delayed_call.h"
	.file 124 "/mnt/disk/jenkins/ci/workspace/chipset_patch_970_docker/opensource/component_code/vendor/huawei/extra/build/build_script/kirin_kernel_release/kernel/include/linux/percpu_counter.h"
	.file 125 "/mnt/disk/jenkins/ci/workspace/chipset_patch_970_docker/opensource/component_code/vendor/huawei/extra/build/build_script/kirin_kernel_release/kernel/include/linux/quota.h"
	.file 126 "/mnt/disk/jenkins/ci/workspace/chipset_patch_970_docker/opensource/component_code/vendor/huawei/extra/build/build_script/kirin_kernel_release/kernel/include/linux/projid.h"
	.file 127 "/mnt/disk/jenkins/ci/workspace/chipset_patch_970_docker/opensource/component_code/vendor/huawei/extra/build/build_script/kirin_kernel_release/kernel/include/linux/writeback.h"
	.file 128 "/mnt/disk/jenkins/ci/workspace/chipset_patch_970_docker/opensource/component_code/vendor/huawei/extra/build/build_script/kirin_kernel_release/kernel/include/linux/genhd.h"
	.file 129 "/mnt/disk/jenkins/ci/workspace/chipset_patch_970_docker/opensource/component_code/vendor/huawei/extra/build/build_script/kirin_kernel_release/kernel/include/linux/nfs_fs_i.h"
	.file 130 "/mnt/disk/jenkins/ci/workspace/chipset_patch_970_docker/opensource/component_code/vendor/huawei/extra/build/build_script/kirin_kernel_release/kernel/include/linux/statfs.h"
	.file 131 "/mnt/disk/jenkins/ci/workspace/chipset_patch_970_docker/opensource/component_code/vendor/huawei/extra/build/build_script/kirin_kernel_release/kernel/include/linux/pinctrl/devinfo.h"
	.file 132 "/mnt/disk/jenkins/ci/workspace/chipset_patch_970_docker/opensource/component_code/vendor/huawei/extra/build/build_script/kirin_kernel_release/kernel/include/linux/pm.h"
	.file 133 "/mnt/disk/jenkins/ci/workspace/chipset_patch_970_docker/opensource/component_code/vendor/huawei/extra/build/build_script/kirin_kernel_release/kernel/include/linux/device.h"
	.file 134 "/mnt/disk/jenkins/ci/workspace/chipset_patch_970_docker/opensource/component_code/vendor/huawei/extra/build/build_script/kirin_kernel_release/kernel/include/linux/pm_wakeup.h"
	.file 135 "/mnt/disk/jenkins/ci/workspace/chipset_patch_970_docker/opensource/component_code/vendor/huawei/extra/build/build_script/kirin_kernel_release/kernel/arch/arm64/include/asm/device.h"
	.file 136 "/mnt/disk/jenkins/ci/workspace/chipset_patch_970_docker/opensource/component_code/vendor/huawei/extra/build/build_script/kirin_kernel_release/kernel/include/linux/bootdevice.h"
	.file 137 "/mnt/disk/jenkins/ci/workspace/chipset_patch_970_docker/opensource/component_code/vendor/huawei/extra/build/build_script/kirin_kernel_release/kernel/include/linux/vmstat.h"
	.file 138 "/mnt/disk/jenkins/ci/workspace/chipset_patch_970_docker/opensource/component_code/vendor/huawei/extra/build/build_script/kirin_kernel_release/kernel/include/linux/flex_proportions.h"
	.file 139 "/mnt/disk/jenkins/ci/workspace/chipset_patch_970_docker/opensource/component_code/vendor/huawei/extra/build/build_script/kirin_kernel_release/kernel/include/linux/mempool.h"
	.file 140 "/mnt/disk/jenkins/ci/workspace/chipset_patch_970_docker/opensource/component_code/vendor/huawei/extra/build/build_script/kirin_kernel_release/kernel/include/linux/bsg.h"
	.file 141 "/mnt/disk/jenkins/ci/workspace/chipset_patch_970_docker/opensource/component_code/vendor/huawei/extra/build/build_script/kirin_kernel_release/kernel/include/linux/wbt.h"
	.file 142 "/mnt/disk/jenkins/ci/workspace/chipset_patch_970_docker/opensource/component_code/vendor/huawei/extra/build/build_script/kirin_kernel_release/kernel/include/linux/elevator.h"
	.file 143 "/mnt/disk/jenkins/ci/workspace/chipset_patch_970_docker/opensource/component_code/vendor/huawei/extra/build/build_script/kirin_kernel_release/kernel/include/linux/cgroup.h"
	.file 144 "/mnt/disk/jenkins/ci/workspace/chipset_patch_970_docker/opensource/component_code/vendor/huawei/extra/build/build_script/kirin_kernel_release/kernel/include/linux/ns_common.h"
	.file 145 "/mnt/disk/jenkins/ci/workspace/chipset_patch_970_docker/opensource/component_code/vendor/huawei/extra/build/build_script/kirin_kernel_release/kernel/drivers/hisi/tzdriver/libhwsecurec/securec.h"
	.file 146 "/mnt/disk/jenkins/ci/workspace/chipset_patch_970_docker/opensource/component_code/vendor/huawei/extra/build/build_script/kirin_kernel_release/kernel/include/asm-generic/bitops/builtin-__fls.h"
	.file 147 "/mnt/disk/jenkins/ci/workspace/chipset_patch_970_docker/opensource/component_code/vendor/huawei/extra/build/build_script/kirin_kernel_release/kernel/include/asm-generic/bitops/fls64.h"
	.file 148 "/mnt/disk/jenkins/ci/workspace/chipset_patch_970_docker/opensource/component_code/vendor/huawei/extra/build/build_script/kirin_kernel_release/kernel/include/linux/jiffies.h"
	.file 149 "/mnt/disk/jenkins/ci/workspace/chipset_patch_970_docker/opensource/component_code/vendor/huawei/extra/build/build_script/kirin_kernel_release/kernel/arch/arm64/include/asm/percpu.h"
	.file 150 "/mnt/disk/jenkins/ci/workspace/chipset_patch_970_docker/opensource/component_code/vendor/huawei/extra/build/build_script/kirin_kernel_release/kernel/include/linux/topology.h"
	.file 151 "/mnt/disk/jenkins/ci/workspace/chipset_patch_970_docker/opensource/component_code/vendor/huawei/extra/build/build_script/kirin_kernel_release/kernel/include/linux/log2.h"
	.file 152 "/mnt/disk/jenkins/ci/workspace/chipset_patch_970_docker/opensource/component_code/vendor/huawei/extra/build/build_script/kirin_kernel_release/kernel/include/asm-generic/getorder.h"
	.file 153 "/mnt/disk/jenkins/ci/workspace/chipset_patch_970_docker/opensource/component_code/vendor/huawei/extra/build/build_script/kirin_kernel_release/kernel/include/linux/kasan-checks.h"
	.file 154 "/mnt/disk/jenkins/ci/workspace/chipset_patch_970_docker/opensource/component_code/vendor/huawei/extra/build/build_script/kirin_kernel_release/kernel/include/linux/thread_info.h"
	.file 155 "/mnt/disk/jenkins/ci/workspace/chipset_patch_970_docker/opensource/component_code/vendor/huawei/extra/build/build_script/kirin_kernel_release/kernel/include/linux/hisi/pagecache_debug.h"
	.file 156 "/mnt/disk/jenkins/ci/workspace/chipset_patch_970_docker/opensource/component_code/vendor/huawei/extra/build/build_script/kirin_kernel_release/kernel/arch/arm64/include/asm/cachetype.h"
	.file 157 "/mnt/disk/jenkins/ci/workspace/chipset_patch_970_docker/opensource/component_code/vendor/huawei/extra/build/build_script/kirin_kernel_release/kernel/include/linux/printk.h"
	.file 158 "/mnt/disk/jenkins/ci/workspace/chipset_patch_970_docker/opensource/component_code/vendor/huawei/extra/build/build_script/kirin_kernel_release/kernel/include/linux/kernel.h"
	.file 159 "/mnt/disk/jenkins/ci/workspace/chipset_patch_970_docker/opensource/component_code/vendor/huawei/extra/build/build_script/kirin_kernel_release/kernel/arch/arm64/include/asm/stack_pointer.h"
	.file 160 "/mnt/disk/jenkins/ci/workspace/chipset_patch_970_docker/opensource/component_code/vendor/huawei/extra/build/build_script/kirin_kernel_release/kernel/arch/arm64/include/asm/hwcap.h"
	.file 161 "/mnt/disk/jenkins/ci/workspace/chipset_patch_970_docker/opensource/component_code/vendor/huawei/extra/build/build_script/kirin_kernel_release/kernel/arch/arm64/include/asm/cpufeature.h"
	.file 162 "/mnt/disk/jenkins/ci/workspace/chipset_patch_970_docker/opensource/component_code/vendor/huawei/extra/build/build_script/kirin_kernel_release/kernel/arch/arm64/include/asm/virt.h"
	.file 163 "/mnt/disk/jenkins/ci/workspace/chipset_patch_970_docker/opensource/component_code/vendor/huawei/extra/build/build_script/kirin_kernel_release/kernel/include/linux/highuid.h"
	.file 164 "/mnt/disk/jenkins/ci/workspace/chipset_patch_970_docker/opensource/component_code/vendor/huawei/extra/build/build_script/kirin_kernel_release/kernel/arch/arm64/include/asm/memory.h"
	.file 165 "/mnt/disk/jenkins/ci/workspace/chipset_patch_970_docker/opensource/component_code/vendor/huawei/extra/build/build_script/kirin_kernel_release/kernel/include/asm-generic/percpu.h"
	.file 166 "/mnt/disk/jenkins/ci/workspace/chipset_patch_970_docker/opensource/component_code/vendor/huawei/extra/build/build_script/kirin_kernel_release/kernel/include/linux/debug_locks.h"
	.file 167 "/mnt/disk/jenkins/ci/workspace/chipset_patch_970_docker/opensource/component_code/vendor/huawei/extra/build/build_script/kirin_kernel_release/kernel/include/asm-generic/pgtable.h"
	.file 168 "/mnt/disk/jenkins/ci/workspace/chipset_patch_970_docker/opensource/component_code/vendor/huawei/extra/build/build_script/kirin_kernel_release/kernel/arch/arm64/include/asm/irq.h"
	.file 169 "/mnt/disk/jenkins/ci/workspace/chipset_patch_970_docker/opensource/component_code/vendor/huawei/extra/build/build_script/kirin_kernel_release/kernel/arch/arm64/include/asm/hardirq.h"
	.file 170 "/mnt/disk/jenkins/ci/workspace/chipset_patch_970_docker/opensource/component_code/vendor/huawei/extra/build/build_script/kirin_kernel_release/kernel/include/linux/namei.h"
	.file 171 "/mnt/disk/jenkins/ci/workspace/chipset_patch_970_docker/opensource/component_code/vendor/huawei/extra/build/build_script/kirin_kernel_release/kernel/arch/arm64/include/asm/bitops.h"
	.file 172 "/mnt/disk/jenkins/ci/workspace/chipset_patch_970_docker/opensource/component_code/vendor/huawei/extra/build/build_script/kirin_kernel_release/kernel/mm/internal.h"
	.section	.note.GNU-stack,"",%progbits
